

Microchip MPLAB XC8 Assembler V2.40 build 20220703182018 
                                                                                               Mon Sep 25 13:38:59 2023

Microchip MPLAB XC8 C Compiler v2.40 (Free license) build 20220703182018 Og1 
     1                           	processor	18F25K80
     2                           	fnconf	rparam,??,?,0
     3                           	pagewidth 120
     4                           	opt	flic
     5                           	psect	idataCOMRAM,global,class=CODE,delta=1,noexec
     6                           	psect	nvCOMRAM,global,class=COMRAM,space=1,delta=1,lowdata,noexec
     7                           	psect	nvBANK0,global,class=BANK0,space=1,delta=1,lowdata,noexec
     8                           	psect	smallconst,global,reloc=2,class=SMALLCONST,delta=1,noexec
     9                           	psect	cinit,global,reloc=2,class=CODE,delta=1
    10                           	psect	bssCOMRAM,global,class=COMRAM,space=1,delta=1,lowdata,noexec
    11                           	psect	dataCOMRAM,global,class=COMRAM,space=1,delta=1,lowdata,noexec
    12                           	psect	bssBANK0,global,class=BANK0,space=1,delta=1,lowdata,noexec
    13                           	psect	cstackBANK0,global,class=BANK0,space=1,delta=1,lowdata,noexec
    14                           	psect	cstackCOMRAM,global,class=COMRAM,space=1,delta=1,lowdata,noexec
    15                           	psect	text0,global,reloc=2,class=CODE,delta=1
    16                           	psect	text1,global,reloc=2,class=CODE,delta=1,group=3
    17                           	psect	text2,global,reloc=2,class=CODE,delta=1,group=1
    18                           	psect	text3,global,reloc=2,class=CODE,delta=1,group=1
    19                           	psect	text4,global,reloc=2,class=CODE,delta=1,group=3
    20                           	psect	text5,global,reloc=2,class=CODE,delta=1
    21                           	psect	text6,global,reloc=2,class=CODE,delta=1
    22                           	psect	text7,global,reloc=2,class=CODE,delta=1,group=2
    23                           	psect	text8,global,reloc=2,class=CODE,delta=1
    24                           	psect	text9,global,reloc=2,class=CODE,delta=1
    25                           	psect	text10,global,reloc=2,class=CODE,delta=1
    26                           	psect	text11,global,reloc=2,class=CODE,delta=1
    27                           	psect	text12,global,reloc=2,class=CODE,delta=1
    28                           	psect	text13,global,reloc=2,class=CODE,delta=1
    29                           	psect	text14,global,reloc=2,class=CODE,delta=1
    30                           	psect	text15,global,reloc=2,class=CODE,delta=1
    31                           	psect	text16,global,reloc=2,class=CODE,delta=1
    32                           	psect	text17,global,reloc=2,class=CODE,delta=1
    33                           	psect	text18,global,reloc=2,class=CODE,delta=1
    34                           	psect	text19,global,reloc=2,class=CODE,delta=1
    35                           	psect	text20,global,reloc=2,class=CODE,delta=1
    36                           	psect	text21,global,reloc=2,class=CODE,delta=1
    37                           	psect	text22,global,reloc=2,class=CODE,delta=1
    38                           	psect	text23,global,reloc=2,class=CODE,delta=1
    39                           	psect	text24,global,reloc=2,class=CODE,delta=1
    40                           	psect	text25,global,reloc=2,class=CODE,delta=1
    41                           	psect	text26,global,reloc=2,class=CODE,delta=1
    42                           	psect	intcode,global,reloc=2,class=CODE,delta=1
    43                           	psect	text28,global,reloc=2,class=CODE,delta=1
    44                           	psect	text29,global,reloc=2,class=CODE,delta=1
    45                           	psect	text30,global,reloc=2,class=CODE,delta=1
    46                           	psect	text31,global,reloc=2,class=CODE,delta=1
    47                           	psect	text32,global,reloc=2,class=CODE,delta=1
    48                           	psect	text33,global,reloc=2,class=CODE,delta=1
    49                           	psect	text34,global,reloc=2,class=CODE,delta=1
    50                           	psect	intsave_regs,global,class=BIGRAM,space=1,delta=1,noexec
    51                           	psect	text35,global,reloc=2,class=CODE,delta=1
    52                           	psect	rparam,global,class=COMRAM,space=1,delta=1,noexec
    53                           	psect	temp,global,ovrld,common,class=COMRAM,space=1,delta=1
    54                           	psect	idloc,global,abs,ovrld,class=IDLOC,space=5,delta=1,noexec
    55                           	psect	config,global,abs,ovrld,class=CONFIG,space=4,delta=1,noexec
    56   000000                     
    57                           ; Version 2.20
    58                           ; Generated 05/05/2020 GMT
    59                           ; 
    60                           ; Copyright © 2020, Microchip Technology Inc. and its subsidiaries ("Microchip")
    61                           ; All rights reserved.
    62                           ; 
    63                           ; This software is developed by Microchip Technology Inc. and its subsidiaries ("Microch
      +                          ip").
    64                           ; 
    65                           ; Redistribution and use in source and binary forms, with or without modification, are
    66                           ; permitted provided that the following conditions are met:
    67                           ; 
    68                           ;     1. Redistributions of source code must retain the above copyright notice, this lis
      +                          t of
    69                           ;        conditions and the following disclaimer.
    70                           ; 
    71                           ;     2. Redistributions in binary form must reproduce the above copyright notice, this 
      +                          list
    72                           ;        of conditions and the following disclaimer in the documentation and/or other
    73                           ;        materials provided with the distribution.
    74                           ; 
    75                           ;     3. Microchip's name may not be used to endorse or promote products derived from th
      +                          is
    76                           ;        software without specific prior written permission.
    77                           ; 
    78                           ; THIS SOFTWARE IS PROVIDED BY MICROCHIP "AS IS" AND ANY EXPRESS OR IMPLIED WARRANTIES,
    79                           ; INCLUDING, BUT NOT LIMITED TO, THE IMPLIED WARRANTIES OF MERCHANTABILITY AND FITNESS F
      +                          OR
    80                           ; PURPOSE ARE DISCLAIMED.  IN NO EVENT SHALL MICROCHIP BE LIABLE FOR ANY DIRECT, INDIREC
      +                          T,
    81                           ; INCIDENTAL, SPECIAL, EXEMPLARY, OR CONSEQUENTIAL DAMAGES (INCLUDING BUT NOT LIMITED TO
    82                           ; PROCUREMENT OF SUBSTITUTE GOODS OR SERVICES; LOSS OF USE, DATA OR PROFITS; OR BUSINESS
    83                           ; INTERRUPTION) HOWSOEVER CAUSED AND ON ANY THEORY OF LIABILITY, WHETHER IN CONTRACT, ST
      +                          RICT
    84                           ; LIABILITY, OR TORT (INCLUDING NEGLIGENCE OR OTHERWISE) ARISING IN ANY WAY OUT OF THE U
      +                          SE OF
    85                           ; THIS SOFTWARE, EVEN IF ADVISED OF THE POSSIBILITY OF SUCH DAMAGE.
    86                           ; 
    87                           ; 
    88                           ; Code-generator required, PIC18F25K80 Definitions
    89                           ; 
    90                           ; SFR Addresses
    91   000000                     
    92 ;; Function _EUSART1_DefaultFramingErrorHandler is unused but had its address taken
    93   000000                     
    94 ;; Function _EUSART1_DefaultOverrunErrorHandler is unused but had its address taken
    95   000000                     
    96 ;; Function _EUSART1_DefaultErrorHandler is unused but had its address taken
    97   000000                     
    98                           	psect	idataCOMRAM
    99   0021FA                     __pidataCOMRAM:
   100                           	callstack 0
   101                           
   102                           ;initializer for _etat
   103   0021FA  0002               	dw	2
   104   000000                     _ADRESL	set	4035
   105   000000                     _ADRESH	set	4036
   106   000000                     _TXREG1	set	4013
   107   000000                     _RCREG1	set	4014
   108   000000                     _SPBRG1	set	4015
   109   000000                     _TXSTA1	set	4012
   110   000000                     _RCSTA1	set	4011
   111   000000                     _T1CON	set	4045
   112   000000                     _TMR1L	set	4046
   113   000000                     _TMR1H	set	4047
   114   000000                     _COMSTATbits	set	3953
   115   000000                     _RXB1SIDH	set	3889
   116   000000                     _RXB1SIDL	set	3890
   117   000000                     _RXB0D7	set	3949
   118   000000                     _RXB0D6	set	3948
   119   000000                     _RXB0D5	set	3947
   120   000000                     _RXB0D4	set	3946
   121   000000                     _RXB0D3	set	3945
   122   000000                     _RXB0D2	set	3944
   123   000000                     _RXB0D1	set	3943
   124   000000                     _RXB0D0	set	3942
   125   000000                     _RXB0DLC	set	3941
   126   000000                     _RXB0SIDH	set	3937
   127   000000                     _RXB0EIDL	set	3940
   128   000000                     _RXB0EIDH	set	3939
   129   000000                     _RXB0SIDL	set	3938
   130   000000                     _TXB2SIDL	set	3842
   131   000000                     _TXB2SIDH	set	3841
   132   000000                     _TXB2EIDH	set	3843
   133   000000                     _TXB2CONbits	set	3840
   134   000000                     _TXB1SIDL	set	3858
   135   000000                     _TXB1SIDH	set	3857
   136   000000                     _TXB1EIDH	set	3859
   137   000000                     _TXB1CONbits	set	3856
   138   000000                     _TXB0SIDL	set	3874
   139   000000                     _TXB0SIDH	set	3873
   140   000000                     _TXB0EIDH	set	3875
   141   000000                     _TXB0CONbits	set	3872
   142   000000                     _RXF5SIDL	set	3829
   143   000000                     _RXF5SIDH	set	3828
   144   000000                     _RXF5EIDL	set	3831
   145   000000                     _RXF5EIDH	set	3830
   146   000000                     _RXF4SIDL	set	3825
   147   000000                     _RXF4SIDH	set	3824
   148   000000                     _RXF4EIDL	set	3827
   149   000000                     _RXF4EIDH	set	3826
   150   000000                     _RXF3SIDL	set	3821
   151   000000                     _RXF3SIDH	set	3820
   152   000000                     _RXF3EIDL	set	3823
   153   000000                     _RXF3EIDH	set	3822
   154   000000                     _RXF2SIDL	set	3817
   155   000000                     _RXF2SIDH	set	3816
   156   000000                     _RXF2EIDL	set	3819
   157   000000                     _RXF2EIDH	set	3818
   158   000000                     _RXF1SIDL	set	3813
   159   000000                     _RXF1SIDH	set	3812
   160   000000                     _RXF1EIDL	set	3815
   161   000000                     _RXF1EIDH	set	3814
   162   000000                     _RXF0SIDL	set	3809
   163   000000                     _RXF0EIDL	set	3811
   164   000000                     _RXM1SIDL	set	3837
   165   000000                     _RXM1SIDH	set	3836
   166   000000                     _RXM1EIDL	set	3839
   167   000000                     _RXM1EIDH	set	3838
   168   000000                     _RXM0SIDL	set	3833
   169   000000                     _RXM0EIDL	set	3835
   170   000000                     _CIOCON	set	3952
   171   000000                     _ECANCON	set	3954
   172                           
   173                           	psect	nvCOMRAM
   174   000039                     __pnvCOMRAM:
   175                           	callstack 0
   176   000039                     _timer1ReloadVal:
   177                           	callstack 0
   178   000039                     	ds	2
   179                           
   180                           	psect	nvBANK0
   181   0000A5                     __pnvBANK0:
   182                           	callstack 0
   183   0000A5                     _EUSART1_ErrorHandler:
   184                           	callstack 0
   185   0000A5                     	ds	2
   186   0000A7                     _EUSART1_OverrunErrorHandler:
   187                           	callstack 0
   188   0000A7                     	ds	2
   189   0000A9                     _EUSART1_FramingErrorHandler:
   190                           	callstack 0
   191   0000A9                     	ds	2
   192   0000AB                     _TMR1_InterruptHandler:
   193                           	callstack 0
   194   0000AB                     	ds	2
   195   000000                     _LATCbits	set	3979
   196   000000                     _RXB0CON	set	3936
   197   000000                     _ADCON0bits	set	4034
   198   000000                     _RCSTA1bits	set	4011
   199   000000                     _TXSTA1bits	set	4012
   200   000000                     _T1GCONbits	set	4010
   201   000000                     _T1CONbits	set	4045
   202   000000                     _BRGCON1	set	3651
   203   000000                     _RXF0SIDH	set	3808
   204   000000                     _RXF0EIDH	set	3810
   205   000000                     _RXM0SIDH	set	3832
   206   000000                     _RXM0EIDH	set	3834
   207   000000                     _WPUB	set	3931
   208   000000                     _ANCON1	set	3932
   209   000000                     _ANCON0	set	3933
   210   000000                     _LATA	set	3977
   211   000000                     _REFOCON	set	3994
   212   000000                     _OSCTUNE	set	3995
   213   000000                     _OSCCON2	set	4050
   214   000000                     _OSCCON	set	4051
   215   000000                     _INTCON2bits	set	4081
   216   000000                     _PIE1bits	set	3997
   217   000000                     _RCONbits	set	4048
   218   000000                     _TRISA	set	3986
   219   000000                     _LATC	set	3979
   220   000000                     _LATB	set	3978
   221   000000                     _TRISC	set	3988
   222   000000                     _TRISB	set	3987
   223   000000                     _RXB0CONbits	set	3936
   224   000000                     _CANSTAT	set	3950
   225   000000                     _CANCON	set	3951
   226   000000                     _PIE5bits	set	3958
   227   000000                     _INTCONbits	set	4082
   228   000000                     _SPBRGH1	set	3965
   229   000000                     _PIR5bits	set	3959
   230   000000                     _BAUDCON1	set	4007
   231   000000                     _T1GCON	set	4010
   232   000000                     _PIR1bits	set	3998
   233   000000                     _BRGCON3	set	3653
   234   000000                     _BRGCON2	set	3652
   235   000000                     _RXB1CONbits	set	3888
   236   000000                     _TXB0D7	set	3885
   237   000000                     _TXB0D6	set	3884
   238   000000                     _TXB0D5	set	3883
   239   000000                     _TXB0D4	set	3882
   240   000000                     _TXB0D3	set	3881
   241   000000                     _TXB0D2	set	3880
   242   000000                     _TXB0D1	set	3879
   243   000000                     _TXB0D0	set	3878
   244   000000                     _TXB0DLC	set	3877
   245   000000                     _TXB0EIDL	set	3876
   246   000000                     _TXB1D7	set	3869
   247   000000                     _TXB1D6	set	3868
   248   000000                     _TXB1D5	set	3867
   249   000000                     _TXB1D4	set	3866
   250   000000                     _TXB1D3	set	3865
   251   000000                     _TXB1D2	set	3864
   252   000000                     _TXB1D1	set	3863
   253   000000                     _TXB1D0	set	3862
   254   000000                     _TXB1DLC	set	3861
   255   000000                     _TXB1EIDL	set	3860
   256   000000                     _TXB2D7	set	3853
   257   000000                     _TXB2D6	set	3852
   258   000000                     _TXB2D5	set	3851
   259   000000                     _TXB2D4	set	3850
   260   000000                     _TXB2D3	set	3849
   261   000000                     _TXB2D2	set	3848
   262   000000                     _TXB2D1	set	3847
   263   000000                     _TXB2D0	set	3846
   264   000000                     _TXB2DLC	set	3845
   265   000000                     _TXB2EIDL	set	3844
   266   000000                     _RXB1D7	set	3901
   267   000000                     _RXB1D6	set	3900
   268   000000                     _RXB1D5	set	3899
   269   000000                     _RXB1D4	set	3898
   270   000000                     _RXB1D3	set	3897
   271   000000                     _RXB1D2	set	3896
   272   000000                     _RXB1D1	set	3895
   273   000000                     _RXB1D0	set	3894
   274   000000                     _RXB1DLC	set	3893
   275   000000                     _RXB1EIDL	set	3892
   276   000000                     _RXB1EIDH	set	3891
   277   000000                     _ADCON2	set	4032
   278   000000                     _ADCON1	set	4033
   279   000000                     _ADCON0	set	4034
   280   000000                     _PORTAbits	set	3968
   281                           
   282                           	psect	smallconst
   283   001000                     __psmallconst:
   284                           	callstack 0
   285   001000  00                 	db	0
   286   001001                     STR_1:
   287   001001  43                 	db	67	;'C'
   288   001002  41                 	db	65	;'A'
   289   001003  4E                 	db	78	;'N'
   290   001004  20                 	db	32
   291   001005  52                 	db	82	;'R'
   292   001006  45                 	db	69	;'E'
   293   001007  43                 	db	67	;'C'
   294   001008  45                 	db	69	;'E'
   295   001009  49                 	db	73	;'I'
   296   00100A  56                 	db	86	;'V'
   297   00100B  45                 	db	69	;'E'
   298   00100C  52                 	db	82	;'R'
   299   00100D  00                 	db	0
   300   00100E  00                 	db	0	; dummy byte at the end
   301   000000                     
   302                           ; #config settings
   303                           
   304                           	psect	cinit
   305   001F6E                     __pcinit:
   306                           	callstack 0
   307   001F6E                     start_initialization:
   308                           	callstack 0
   309   001F6E                     __initialization:
   310                           	callstack 0
   311                           
   312                           ; Initialize objects allocated to COMRAM (2 bytes)
   313                           ; load TBLPTR registers with __pidataCOMRAM
   314   001F6E  0EFA               	movlw	low __pidataCOMRAM
   315   001F70  6EF6               	movwf	tblptrl,c
   316   001F72  0E21               	movlw	high __pidataCOMRAM
   317   001F74  6EF7               	movwf	tblptrh,c
   318   001F76  0E00               	movlw	low (__pidataCOMRAM shr (0+16))
   319   001F78  6EF8               	movwf	tblptru,c
   320   001F7A  0009               	tblrd		*+	;fetch initializer
   321   001F7C  CFF5 F03B          	movff	tablat,__pdataCOMRAM
   322   001F80  0009               	tblrd		*+	;fetch initializer
   323   001F82  CFF5 F03C          	movff	tablat,__pdataCOMRAM+1
   324                           
   325                           ; Clear objects allocated to BANK0 (36 bytes)
   326   001F86  EE00  F060         	lfsr	0,__pbssBANK0
   327   001F8A  0E24               	movlw	36
   328   001F8C                     clear_0:
   329   001F8C  6AEE               	clrf	postinc0,c
   330   001F8E  06E8               	decf	wreg,f,c
   331   001F90  E1FD               	bnz	clear_0
   332                           
   333                           ; Clear objects allocated to COMRAM (19 bytes)
   334   001F92  EE00  F026         	lfsr	0,__pbssCOMRAM
   335   001F96  0E13               	movlw	19
   336   001F98                     clear_1:
   337   001F98  6AEE               	clrf	postinc0,c
   338   001F9A  06E8               	decf	wreg,f,c
   339   001F9C  E1FD               	bnz	clear_1
   340   001F9E                     end_of_initialization:
   341                           	callstack 0
   342   001F9E                     __end_of__initialization:
   343                           	callstack 0
   344   001F9E  903D               	bcf	int$flags,0,c	;clear compiler interrupt flag (level 1)
   345   001FA0  923D               	bcf	int$flags,1,c	;clear compiler interrupt flag (level 2)
   346   001FA2  0E00               	movlw	low (__Lmediumconst shr (0+16))
   347   001FA4  6EF8               	movwf	tblptru,c
   348   001FA6  0100               	movlb	0
   349   001FA8  EF08  F008         	goto	_main	;jump to C main() function
   350                           
   351                           	psect	bssCOMRAM
   352   000026                     __pbssCOMRAM:
   353                           	callstack 0
   354   000026                     _Batterie:
   355                           	callstack 0
   356   000026                     	ds	2
   357   000028                     _Systeme:
   358                           	callstack 0
   359   000028                     	ds	2
   360   00002A                     _Protection:
   361                           	callstack 0
   362   00002A                     	ds	2
   363   00002C                     _Switch:
   364                           	callstack 0
   365   00002C                     	ds	2
   366   00002E                     _ADC_InterruptHandler:
   367                           	callstack 0
   368   00002E                     	ds	2
   369   000030                     TMR1_ISR@CountCallBack:
   370                           	callstack 0
   371   000030                     	ds	2
   372   000032                     _WakeUpInterruptHandler:
   373                           	callstack 0
   374   000032                     	ds	2
   375   000034                     _flags:
   376                           	callstack 0
   377   000034                     	ds	1
   378   000035                     _charge_MSB:
   379                           	callstack 0
   380   000035                     	ds	1
   381   000036                     _charge_LSB:
   382                           	callstack 0
   383   000036                     	ds	1
   384   000037                     _flag_timer_1s:
   385                           	callstack 0
   386   000037                     	ds	1
   387   000038                     _eusart1RxLastError:
   388                           	callstack 0
   389   000038                     	ds	1
   390                           
   391                           	psect	dataCOMRAM
   392   00003B                     __pdataCOMRAM:
   393                           	callstack 0
   394   00003B                     _etat:
   395                           	callstack 0
   396   00003B                     	ds	2
   397                           
   398                           	psect	bssBANK0
   399   000060                     __pbssBANK0:
   400                           	callstack 0
   401   000060                     	ds	32
   402   000080                     _width:
   403                           	callstack 0
   404   000080                     	ds	2
   405   000082                     _prec:
   406                           	callstack 0
   407   000082                     	ds	2
   408                           
   409                           	psect	cstackBANK0
   410   000084                     __pcstackBANK0:
   411                           	callstack 0
   412   000084                     main@batterie:
   413                           	callstack 0
   414                           
   415                           ; 1 bytes @ 0x0
   416   000084                     	ds	1
   417   000085                     main@charge:
   418                           	callstack 0
   419                           
   420                           ; 4 bytes @ 0x1
   421   000085                     	ds	4
   422   000089                     main@txCan:
   423                           	callstack 0
   424                           
   425                           ; 14 bytes @ 0x5
   426   000089                     	ds	14
   427   000097                     main@rxCan:
   428                           	callstack 0
   429                           
   430                           ; 14 bytes @ 0x13
   431   000097                     	ds	14
   432                           
   433                           	psect	cstackCOMRAM
   434   000001                     __pcstackCOMRAM:
   435                           	callstack 0
   436   000001                     TMR1_WriteTimer@timerVal:
   437                           	callstack 0
   438                           
   439                           ; 2 bytes @ 0x0
   440   000001                     	ds	2
   441   000003                     ??_INTERRUPT_InterruptManager:
   442   000003                     
   443                           ; 1 bytes @ 0x2
   444   000003                     	ds	2
   445   000005                     ?_ADC_GetConversion:
   446                           	callstack 0
   447   000005                     ?_convertReg2ExtendedCANid:
   448                           	callstack 0
   449   000005                     ?_convertReg2StandardCANid:
   450                           	callstack 0
   451   000005                     ?___lmul:
   452                           	callstack 0
   453   000005                     convertReg2ExtendedCANid@tempRXBn_EIDL:
   454                           	callstack 0
   455   000005                     convertReg2StandardCANid@tempRXBn_SIDL:
   456                           	callstack 0
   457   000005                     EUSART1_Write@txData:
   458                           	callstack 0
   459   000005                     ECAN_SetWakeUpInterruptHandler@handler:
   460                           	callstack 0
   461   000005                     TMR1_SetInterruptHandler@InterruptHandler:
   462                           	callstack 0
   463   000005                     EUSART1_SetFramingErrorHandler@interruptHandler:
   464                           	callstack 0
   465   000005                     EUSART1_SetOverrunErrorHandler@interruptHandler:
   466                           	callstack 0
   467   000005                     EUSART1_SetErrorHandler@interruptHandler:
   468                           	callstack 0
   469   000005                     convertCANid2Reg@tempPassedInID:
   470                           	callstack 0
   471   000005                     ___lmul@multiplier:
   472                           	callstack 0
   473                           
   474                           ; 4 bytes @ 0x4
   475   000005                     	ds	1
   476   000006                     convertReg2ExtendedCANid@tempRXBn_SIDH:
   477                           	callstack 0
   478   000006                     putch@txData:
   479                           	callstack 0
   480                           
   481                           ; 1 bytes @ 0x5
   482   000006                     	ds	1
   483   000007                     ??_TMR1_Initialize:
   484   000007                     ??_ECAN_Initialize:
   485   000007                     ??_ADC_GetConversion:
   486   000007                     convertReg2ExtendedCANid@tempRXBn_SIDL:
   487                           	callstack 0
   488   000007                     fputc@c:
   489                           	callstack 0
   490                           
   491                           ; 2 bytes @ 0x6
   492   000007                     	ds	2
   493   000009                     ??_convertReg2ExtendedCANid:
   494   000009                     ??_convertReg2StandardCANid:
   495   000009                     convertCANid2Reg@canIdType:
   496                           	callstack 0
   497   000009                     ADC_GetConversion@channel:
   498                           	callstack 0
   499   000009                     fputc@fp:
   500                           	callstack 0
   501   000009                     ___lmul@multiplicand:
   502                           	callstack 0
   503                           
   504                           ; 4 bytes @ 0x8
   505   000009                     	ds	1
   506   00000A                     convertCANid2Reg@passedInEIDH:
   507                           	callstack 0
   508                           
   509                           ; 2 bytes @ 0x9
   510   00000A                     	ds	1
   511   00000B                     ??_fputc:
   512   00000B                     convertReg2StandardCANid@tempRXBn_SIDH:
   513                           	callstack 0
   514                           
   515                           ; 1 bytes @ 0xA
   516   00000B                     	ds	1
   517   00000C                     convertCANid2Reg@passedInEIDL:
   518                           	callstack 0
   519   00000C                     convertReg2StandardCANid@returnValue:
   520                           	callstack 0
   521                           
   522                           ; 4 bytes @ 0xB
   523   00000C                     	ds	1
   524   00000D                     convertReg2ExtendedCANid@tempRXBn_EIDH:
   525                           	callstack 0
   526   00000D                     ___lmul@product:
   527                           	callstack 0
   528                           
   529                           ; 4 bytes @ 0xC
   530   00000D                     	ds	1
   531   00000E                     convertCANid2Reg@passedInSIDH:
   532                           	callstack 0
   533   00000E                     convertReg2ExtendedCANid@returnValue:
   534                           	callstack 0
   535                           
   536                           ; 4 bytes @ 0xD
   537   00000E                     	ds	2
   538   000010                     convertCANid2Reg@passedInSIDL:
   539                           	callstack 0
   540   000010                     vfpfcnvrt@fp:
   541                           	callstack 0
   542   000010                     convertReg2StandardCANid@ConvertedID:
   543                           	callstack 0
   544                           
   545                           ; 4 bytes @ 0xF
   546   000010                     	ds	2
   547   000012                     ??_convertCANid2Reg:
   548   000012                     convertReg2ExtendedCANid@CAN_standardLo_ID_lo2bits:
   549                           	callstack 0
   550   000012                     vfpfcnvrt@fmt:
   551                           	callstack 0
   552                           
   553                           ; 2 bytes @ 0x11
   554   000012                     	ds	1
   555   000013                     convertReg2ExtendedCANid@CAN_standardLo_ID_hi3bits:
   556                           	callstack 0
   557                           
   558                           ; 1 bytes @ 0x12
   559   000013                     	ds	1
   560   000014                     vfpfcnvrt@ap:
   561                           	callstack 0
   562   000014                     convertReg2ExtendedCANid@ConvertedID:
   563                           	callstack 0
   564                           
   565                           ; 4 bytes @ 0x13
   566   000014                     	ds	2
   567   000016                     ?_vfprintf:
   568                           	callstack 0
   569   000016                     convertCANid2Reg@wipSIDL:
   570                           	callstack 0
   571   000016                     vfprintf@fp:
   572                           	callstack 0
   573                           
   574                           ; 2 bytes @ 0x15
   575   000016                     	ds	1
   576   000017                     CAN_transmit@tempCanMsg:
   577                           	callstack 0
   578                           
   579                           ; 2 bytes @ 0x16
   580   000017                     	ds	1
   581   000018                     CAN_receive@tempCanMsg:
   582                           	callstack 0
   583   000018                     vfprintf@fmt:
   584                           	callstack 0
   585                           
   586                           ; 2 bytes @ 0x17
   587   000018                     	ds	1
   588   000019                     CAN_transmit@tempEIDH:
   589                           	callstack 0
   590                           
   591                           ; 1 bytes @ 0x18
   592   000019                     	ds	1
   593   00001A                     CAN_transmit@tempEIDL:
   594                           	callstack 0
   595   00001A                     CAN_receive@returnValue:
   596                           	callstack 0
   597   00001A                     vfprintf@ap:
   598                           	callstack 0
   599                           
   600                           ; 2 bytes @ 0x19
   601   00001A                     	ds	1
   602   00001B                     CAN_transmit@tempSIDH:
   603                           	callstack 0
   604                           
   605                           ; 1 bytes @ 0x1A
   606   00001B                     	ds	1
   607   00001C                     CAN_transmit@tempSIDL:
   608                           	callstack 0
   609   00001C                     vfprintf@cfmt:
   610                           	callstack 0
   611                           
   612                           ; 2 bytes @ 0x1B
   613   00001C                     	ds	2
   614   00001E                     ?_printf:
   615                           	callstack 0
   616   00001E                     printf@fmt:
   617                           	callstack 0
   618                           
   619                           ; 2 bytes @ 0x1D
   620   00001E                     	ds	2
   621   000020                     printf@ap:
   622                           	callstack 0
   623                           
   624                           ; 2 bytes @ 0x1F
   625   000020                     	ds	2
   626   000022                     ??_main:
   627                           
   628                           ; 1 bytes @ 0x21
   629   000022                     	ds	4
   630                           
   631 ;;
   632 ;;Main: autosize = 0, tempsize = 4, incstack = 0, save=0
   633 ;;
   634 ;; *************** function _main *****************
   635 ;; Defined at:
   636 ;;		line 64 in file "main.c"
   637 ;; Parameters:    Size  Location     Type
   638 ;;		None
   639 ;; Auto vars:     Size  Location     Type
   640 ;;  charge          4    1[BANK0 ] unsigned long 
   641 ;;  batterie        1    0[BANK0 ] unsigned char 
   642 ;;  rxCan          14   19[BANK0 ] struct .
   643 ;;  txCan          14    5[BANK0 ] struct .
   644 ;; Return value:  Size  Location     Type
   645 ;;                  1    wreg      void 
   646 ;; Registers used:
   647 ;;		wreg, fsr1l, fsr1h, fsr2l, fsr2h, status,2, status,0, tblptrl, tblptrh, tblptru, cstack
   648 ;; Tracked objects:
   649 ;;		On entry : 0/0
   650 ;;		On exit  : 0/0
   651 ;;		Unchanged: 0/0
   652 ;; Data sizes:     COMRAM   BANK0   BANK1   BANK2   BANK3   BANK4   BANK5   BANK6   BANK7   BANK8   BANK9  BANK10  BANK1
      +1  BANK12  BANK13  BANK14
   653 ;;      Params:         0       0       0       0       0       0       0       0       0       0       0       0       
      +0       0       0       0
   654 ;;      Locals:         0      33       0       0       0       0       0       0       0       0       0       0       
      +0       0       0       0
   655 ;;      Temps:          4       0       0       0       0       0       0       0       0       0       0       0       
      +0       0       0       0
   656 ;;      Totals:         4      33       0       0       0       0       0       0       0       0       0       0       
      +0       0       0       0
   657 ;;Total ram usage:       37 bytes
   658 ;; Hardware stack levels required when called: 10
   659 ;; This function calls:
   660 ;;		_ADC_GetConversion
   661 ;;		_CAN_receive
   662 ;;		_CAN_transmit
   663 ;;		_EUSART1_Write
   664 ;;		_SYSTEM_Initialize
   665 ;;		_TMR1_SetInterruptHandler
   666 ;;		___lmul
   667 ;;		_printf
   668 ;; This function is called by:
   669 ;;		Startup code after reset
   670 ;; This function uses a non-reentrant model
   671 ;;
   672                           
   673                           	psect	text0
   674   001010                     __ptext0:
   675                           	callstack 0
   676   001010                     _main:
   677                           	callstack 21
   678   001010                     
   679                           ;main.c: 66:     SYSTEM_Initialize();
   680   001010  EC9D  F010         	call	_SYSTEM_Initialize	;wreg free
   681                           
   682                           ;main.c: 68:     TMR1_SetInterruptHandler(timer_1s);
   683   001014  0EF0               	movlw	low _timer_1s
   684   001016  6E05               	movwf	TMR1_SetInterruptHandler@InterruptHandler^0,c
   685   001018  0E21               	movlw	high _timer_1s
   686   00101A  6E06               	movwf	(TMR1_SetInterruptHandler@InterruptHandler+1)^0,c
   687   00101C  ECDF  F010         	call	_TMR1_SetInterruptHandler	;wreg free
   688   001020                     
   689                           ;main.c: 70:     (INTCONbits.GIE = 1);
   690   001020  8EF2               	bsf	242,7,c	;volatile
   691   001022                     
   692                           ;main.c: 73:     (INTCONbits.PEIE = 1);
   693   001022  8CF2               	bsf	242,6,c	;volatile
   694   001024                     
   695                           ;main.c: 75:     RXB0CON = 0x60;
   696   001024  0E60               	movlw	96
   697   001026  6E60               	movwf	96,c	;volatile
   698   001028                     
   699                           ;main.c: 81:     uCAN_MSG txCan;;main.c: 82:     uCAN_MSG rxCan;;main.c: 84:     txCan.f
      +                          rame.id = 0x1A0;
   700   001028  0EA0               	movlw	160
   701   00102A  0100               	movlb	0	; () banked
   702   00102C  6F8A               	movwf	(main@txCan+1)& (0+255),b
   703   00102E  0E01               	movlw	1
   704   001030  6F8B               	movwf	(main@txCan+2)& (0+255),b
   705   001032  0E00               	movlw	0
   706   001034  6F8C               	movwf	(main@txCan+3)& (0+255),b
   707   001036  0E00               	movlw	0
   708   001038  6F8D               	movwf	(main@txCan+4)& (0+255),b
   709   00103A                     
   710                           ; BSR set to: 0
   711                           ;main.c: 85:     txCan.frame.dlc = 3;
   712   00103A  0E03               	movlw	3
   713   00103C  6F8E               	movwf	(main@txCan+5)& (0+255),b
   714   00103E                     
   715                           ; BSR set to: 0
   716                           ;main.c: 86:     txCan.frame.data0 = 0;
   717   00103E  0E00               	movlw	0
   718   001040  6F8F               	movwf	(main@txCan+6)& (0+255),b
   719   001042                     
   720                           ; BSR set to: 0
   721                           ;main.c: 88:     rxCan.frame.id = 0;
   722   001042  0E00               	movlw	0
   723   001044  6F98               	movwf	(main@rxCan+1)& (0+255),b
   724   001046  0E00               	movlw	0
   725   001048  6F99               	movwf	(main@rxCan+2)& (0+255),b
   726   00104A  0E00               	movlw	0
   727   00104C  6F9A               	movwf	(main@rxCan+3)& (0+255),b
   728   00104E  0E00               	movlw	0
   729   001050  6F9B               	movwf	(main@rxCan+4)& (0+255),b
   730   001052                     
   731                           ; BSR set to: 0
   732                           ;main.c: 89:     rxCan.frame.dlc = 0;
   733   001052  0E00               	movlw	0
   734   001054  6F9C               	movwf	(main@rxCan+5)& (0+255),b
   735   001056                     
   736                           ; BSR set to: 0
   737                           ;main.c: 90:     rxCan.frame.data0 = 0;
   738   001056  0E00               	movlw	0
   739   001058  6F9D               	movwf	(main@rxCan+6)& (0+255),b
   740   00105A                     
   741                           ; BSR set to: 0
   742                           ;main.c: 92:     EUSART1_Write(0xFE);
   743   00105A  0EFE               	movlw	254
   744   00105C  ECBB  F010         	call	_EUSART1_Write
   745   001060                     
   746                           ;main.c: 93:     EUSART1_Write(0x41);
   747   001060  0E41               	movlw	65
   748   001062  ECBB  F010         	call	_EUSART1_Write
   749   001066                     
   750                           ;main.c: 94:     EUSART1_Write(0xFE);
   751   001066  0EFE               	movlw	254
   752   001068  ECBB  F010         	call	_EUSART1_Write
   753   00106C                     
   754                           ;main.c: 95:     EUSART1_Write(0x51);
   755   00106C  0E51               	movlw	81
   756   00106E  ECBB  F010         	call	_EUSART1_Write
   757   001072                     
   758                           ;main.c: 96:     EUSART1_Write(0xFE);
   759   001072  0EFE               	movlw	254
   760   001074  ECBB  F010         	call	_EUSART1_Write
   761   001078                     
   762                           ;main.c: 97:     EUSART1_Write(0x46);
   763   001078  0E46               	movlw	70
   764   00107A  ECBB  F010         	call	_EUSART1_Write
   765   00107E                     
   766                           ;main.c: 98:     printf("CAN RECEIVER");
   767   00107E  0E01               	movlw	low STR_1
   768   001080  6E1E               	movwf	printf@fmt^0,c
   769   001082  0E10               	movlw	high STR_1
   770   001084  6E1F               	movwf	(printf@fmt+1)^0,c
   771   001086  EC8A  F010         	call	_printf	;wreg free
   772   00108A                     
   773                           ;main.c: 99:     _delay((unsigned long)((1000)*(20000000/4000.0)));
   774   00108A  0E1A               	movlw	26
   775   00108C  6E23               	movwf	(??_main+1)^0,c
   776   00108E  0E5E               	movlw	94
   777   001090  6E22               	movwf	??_main^0,c
   778   001092  0E6E               	movlw	110
   779   001094                     u1837:
   780   001094  2EE8               	decfsz	wreg,f,c
   781   001096  D7FE               	bra	u1837
   782   001098  2E22               	decfsz	??_main^0,f,c
   783   00109A  D7FC               	bra	u1837
   784   00109C  2E23               	decfsz	(??_main+1)^0,f,c
   785   00109E  D7FA               	bra	u1837
   786   0010A0  D000               	nop2	
   787   0010A2                     l3161:
   788                           
   789                           ;main.c: 104:         if (CAN_receive(&rxCan) >= 1) {
   790   0010A2  0E97               	movlw	low main@rxCan
   791   0010A4  6E18               	movwf	CAN_receive@tempCanMsg^0,c
   792   0010A6  0E00               	movlw	high main@rxCan
   793   0010A8  6E19               	movwf	(CAN_receive@tempCanMsg+1)^0,c
   794   0010AA  ECA6  F00B         	call	_CAN_receive	;wreg free
   795   0010AE  0900               	iorlw	0
   796   0010B0  B4D8               	btfsc	status,2,c
   797   0010B2  EF5D  F008         	goto	u1561
   798   0010B6  EF5F  F008         	goto	u1560
   799   0010BA                     u1561:
   800   0010BA  EFD9  F008         	goto	l3195
   801   0010BE                     u1560:
   802   0010BE                     
   803                           ;main.c: 105:             if (rxCan.frame.id == 0x100) {
   804   0010BE  0100               	movlb	0	; () banked
   805   0010C0  0599               	decf	(main@rxCan+2)& (0+255),w,b
   806   0010C2  1198               	iorwf	(main@rxCan+1)& (0+255),w,b
   807   0010C4  119A               	iorwf	(main@rxCan+3)& (0+255),w,b
   808   0010C6  119B               	iorwf	(main@rxCan+4)& (0+255),w,b
   809   0010C8  A4D8               	btfss	status,2,c
   810   0010CA  EF69  F008         	goto	u1571
   811   0010CE  EF6B  F008         	goto	u1570
   812   0010D2                     u1571:
   813   0010D2  EF7F  F008         	goto	l3171
   814   0010D6                     u1570:
   815   0010D6                     
   816                           ; BSR set to: 0
   817                           ;main.c: 106:                 if (rxCan.frame.data0 != 0x00) {
   818   0010D6  519D               	movf	(main@rxCan+6)& (0+255),w,b
   819   0010D8  B4D8               	btfsc	status,2,c
   820   0010DA  EF71  F008         	goto	u1581
   821   0010DE  EF73  F008         	goto	u1580
   822   0010E2                     u1581:
   823   0010E2  EF79  F008         	goto	l3169
   824   0010E6                     u1580:
   825   0010E6                     
   826                           ; BSR set to: 0
   827                           ;main.c: 107:                     Protection = 1;
   828   0010E6  0E00               	movlw	0
   829   0010E8  6E2B               	movwf	(_Protection+1)^0,c
   830   0010EA  0E01               	movlw	1
   831   0010EC  6E2A               	movwf	_Protection^0,c
   832                           
   833                           ;main.c: 108:                 } else {
   834   0010EE  EFD9  F008         	goto	l3195
   835   0010F2                     l3169:
   836                           
   837                           ; BSR set to: 0
   838                           ;main.c: 109:                     Protection = 0;
   839   0010F2  0E00               	movlw	0
   840   0010F4  6E2B               	movwf	(_Protection+1)^0,c
   841   0010F6  0E00               	movlw	0
   842   0010F8  6E2A               	movwf	_Protection^0,c
   843   0010FA  EFD9  F008         	goto	l3195
   844   0010FE                     l3171:
   845                           
   846                           ; BSR set to: 0
   847   0010FE  0E20               	movlw	32
   848   001100  1998               	xorwf	(main@rxCan+1)& (0+255),w,b
   849   001102  E108               	bnz	u1591
   850   001104  0599               	decf	(main@rxCan+2)& (0+255),w,b
   851   001106  119A               	iorwf	(main@rxCan+3)& (0+255),w,b
   852   001108  119B               	iorwf	(main@rxCan+4)& (0+255),w,b
   853   00110A  A4D8               	btfss	status,2,c
   854   00110C  EF8A  F008         	goto	u1591
   855   001110  EF8C  F008         	goto	u1590
   856   001114                     u1591:
   857   001114  EFA0  F008         	goto	l3179
   858   001118                     u1590:
   859   001118                     
   860                           ; BSR set to: 0
   861                           ;main.c: 112:                 if (rxCan.frame.data0 != 0x00) {
   862   001118  519D               	movf	(main@rxCan+6)& (0+255),w,b
   863   00111A  B4D8               	btfsc	status,2,c
   864   00111C  EF92  F008         	goto	u1601
   865   001120  EF94  F008         	goto	u1600
   866   001124                     u1601:
   867   001124  EF9A  F008         	goto	l3177
   868   001128                     u1600:
   869   001128                     
   870                           ; BSR set to: 0
   871                           ;main.c: 113:                     Systeme = 0;
   872   001128  0E00               	movlw	0
   873   00112A  6E29               	movwf	(_Systeme+1)^0,c
   874   00112C  0E00               	movlw	0
   875   00112E  6E28               	movwf	_Systeme^0,c
   876                           
   877                           ;main.c: 114:                 } else {
   878   001130  EFD9  F008         	goto	l3195
   879   001134                     l3177:
   880                           
   881                           ; BSR set to: 0
   882                           ;main.c: 115:                     Systeme = 1;
   883   001134  0E00               	movlw	0
   884   001136  6E29               	movwf	(_Systeme+1)^0,c
   885   001138  0E01               	movlw	1
   886   00113A  6E28               	movwf	_Systeme^0,c
   887   00113C  EFD9  F008         	goto	l3195
   888   001140                     l3179:
   889                           
   890                           ; BSR set to: 0
   891   001140  0E80               	movlw	128
   892   001142  1998               	xorwf	(main@rxCan+1)& (0+255),w,b
   893   001144  E108               	bnz	u1611
   894   001146  0599               	decf	(main@rxCan+2)& (0+255),w,b
   895   001148  119A               	iorwf	(main@rxCan+3)& (0+255),w,b
   896   00114A  119B               	iorwf	(main@rxCan+4)& (0+255),w,b
   897   00114C  A4D8               	btfss	status,2,c
   898   00114E  EFAB  F008         	goto	u1611
   899   001152  EFAD  F008         	goto	u1610
   900   001156                     u1611:
   901   001156  EFD9  F008         	goto	l642
   902   00115A                     u1610:
   903   00115A                     
   904                           ; BSR set to: 0
   905                           ;main.c: 118:                 uint8_t batterie = rxCan.frame.data0;
   906   00115A  C09D  F084         	movff	main@rxCan+6,main@batterie
   907   00115E                     
   908                           ; BSR set to: 0
   909                           ;main.c: 119:                 if (batterie <= 2) {
   910   00115E  0E03               	movlw	3
   911   001160  6184               	cpfslt	main@batterie& (0+255),b
   912   001162  EFB5  F008         	goto	u1621
   913   001166  EFB7  F008         	goto	u1620
   914   00116A                     u1621:
   915   00116A  EFBD  F008         	goto	l3187
   916   00116E                     u1620:
   917   00116E                     
   918                           ; BSR set to: 0
   919                           ;main.c: 120:                     Batterie = 0;
   920   00116E  0E00               	movlw	0
   921   001170  6E27               	movwf	(_Batterie+1)^0,c
   922   001172  0E00               	movlw	0
   923   001174  6E26               	movwf	_Batterie^0,c
   924                           
   925                           ;main.c: 121:                 } else if (batterie <= 20 || batterie >= 2) {
   926   001176  EFD9  F008         	goto	l3195
   927   00117A                     l3187:
   928                           
   929                           ; BSR set to: 0
   930   00117A  0E14               	movlw	20
   931   00117C  6584               	cpfsgt	main@batterie& (0+255),b
   932   00117E  EFC3  F008         	goto	u1631
   933   001182  EFC5  F008         	goto	u1630
   934   001186                     u1631:
   935   001186  EFCD  F008         	goto	l3191
   936   00118A                     u1630:
   937   00118A                     
   938                           ; BSR set to: 0
   939   00118A  0E01               	movlw	1
   940   00118C  6584               	cpfsgt	main@batterie& (0+255),b
   941   00118E  EFCB  F008         	goto	u1641
   942   001192  EFCD  F008         	goto	u1640
   943   001196                     u1641:
   944   001196  EFD3  F008         	goto	l3193
   945   00119A                     u1640:
   946   00119A                     l3191:
   947                           
   948                           ; BSR set to: 0
   949                           ;main.c: 122:                     Batterie = 2;
   950   00119A  0E00               	movlw	0
   951   00119C  6E27               	movwf	(_Batterie+1)^0,c
   952   00119E  0E02               	movlw	2
   953   0011A0  6E26               	movwf	_Batterie^0,c
   954                           
   955                           ;main.c: 123:                 } else {
   956   0011A2  EFD9  F008         	goto	l3195
   957   0011A6                     l3193:
   958                           
   959                           ; BSR set to: 0
   960                           ;main.c: 124:                     Batterie = 1;
   961   0011A6  0E00               	movlw	0
   962   0011A8  6E27               	movwf	(_Batterie+1)^0,c
   963   0011AA  0E01               	movlw	1
   964   0011AC  6E26               	movwf	_Batterie^0,c
   965   0011AE  EFD9  F008         	goto	l3195
   966   0011B2                     l642:
   967   0011B2                     l3195:
   968                           
   969                           ;main.c: 130:         if (PORTAbits.RA0 == 1) {
   970   0011B2  A080               	btfss	128,0,c	;volatile
   971   0011B4  EFDE  F008         	goto	u1651
   972   0011B8  EFE0  F008         	goto	u1650
   973   0011BC                     u1651:
   974   0011BC  EFE6  F008         	goto	l3199
   975   0011C0                     u1650:
   976   0011C0                     
   977                           ;main.c: 131:             Switch = 0;
   978   0011C0  0E00               	movlw	0
   979   0011C2  6E2D               	movwf	(_Switch+1)^0,c
   980   0011C4  0E00               	movlw	0
   981   0011C6  6E2C               	movwf	_Switch^0,c
   982                           
   983                           ;main.c: 132:         } else {
   984   0011C8  EFFB  F009         	goto	l3267
   985   0011CC                     l3199:
   986                           
   987                           ;main.c: 133:             Switch = 1;
   988   0011CC  0E00               	movlw	0
   989   0011CE  6E2D               	movwf	(_Switch+1)^0,c
   990   0011D0  0E01               	movlw	1
   991   0011D2  6E2C               	movwf	_Switch^0,c
   992   0011D4  EFFB  F009         	goto	l3267
   993   0011D8                     l658:
   994   0011D8  948B               	bcf	139,2,c	;volatile
   995   0011DA                     
   996                           ;main.c: 140:                 if (Batterie == 2) {
   997   0011DA  0E02               	movlw	2
   998   0011DC  1826               	xorwf	_Batterie^0,w,c
   999   0011DE  1027               	iorwf	(_Batterie+1)^0,w,c
  1000   0011E0  A4D8               	btfss	status,2,c
  1001   0011E2  EFF5  F008         	goto	u1661
  1002   0011E6  EFF7  F008         	goto	u1660
  1003   0011EA                     u1661:
  1004   0011EA  EF0C  F009         	goto	l664
  1005   0011EE                     u1660:
  1006   0011EE  B68B               	btfsc	139,3,c	;volatile
  1007   0011F0  EFFC  F008         	goto	u1671
  1008   0011F4  EFFF  F008         	goto	u1670
  1009   0011F8                     u1671:
  1010   0011F8  0E01               	movlw	1
  1011   0011FA  EF00  F009         	goto	u1676
  1012   0011FE                     u1670:
  1013   0011FE  0E00               	movlw	0
  1014   001200                     u1676:
  1015   001200  0AFF               	xorlw	255
  1016   001202  6E22               	movwf	??_main^0,c
  1017   001204  4622               	rlncf	??_main^0,f,c
  1018   001206  4622               	rlncf	??_main^0,f,c
  1019   001208  4622               	rlncf	??_main^0,f,c
  1020   00120A  508B               	movf	139,w,c	;volatile
  1021   00120C  1822               	xorwf	??_main^0,w,c
  1022   00120E  0BF7               	andlw	-9
  1023   001210  1822               	xorwf	??_main^0,w,c
  1024   001212  6E8B               	movwf	139,c	;volatile
  1025   001214  EF0D  F009         	goto	l3205
  1026   001218                     l664:
  1027   001218  868B               	bsf	139,3,c	;volatile
  1028   00121A                     l3205:
  1029                           
  1030                           ;main.c: 145:                 if (flag_timer_1s == 1) {
  1031   00121A  0437               	decf	_flag_timer_1s^0,w,c
  1032   00121C  A4D8               	btfss	status,2,c
  1033   00121E  EF13  F009         	goto	u1681
  1034   001222  EF15  F009         	goto	u1680
  1035   001226                     u1681:
  1036   001226  EF62  F009         	goto	l3221
  1037   00122A                     u1680:
  1038   00122A                     
  1039                           ;main.c: 146:                     txCan.frame.data0 = 0xFF;
  1040   00122A  0100               	movlb	0	; () banked
  1041   00122C  698F               	setf	(main@txCan+6)& (0+255),b
  1042   00122E                     
  1043                           ; BSR set to: 0
  1044                           ;main.c: 147:                     uint32_t charge = ADC_GetConversion(channel_AN8);
  1045   00122E  0E08               	movlw	8
  1046   001230  ECF5  F00F         	call	_ADC_GetConversion
  1047   001234  C005  F085         	movff	?_ADC_GetConversion,main@charge
  1048   001238  C006  F086         	movff	?_ADC_GetConversion+1,main@charge+1
  1049   00123C  0100               	movlb	0	; () banked
  1050   00123E  6B87               	clrf	(main@charge+2)& (0+255),b
  1051   001240  6B88               	clrf	(main@charge+3)& (0+255),b
  1052                           
  1053                           ;main.c: 148:                     charge = (charge * 300);
  1054   001242  C085  F005         	movff	main@charge,___lmul@multiplier
  1055   001246  C086  F006         	movff	main@charge+1,___lmul@multiplier+1
  1056   00124A  C087  F007         	movff	main@charge+2,___lmul@multiplier+2
  1057   00124E  C088  F008         	movff	main@charge+3,___lmul@multiplier+3
  1058   001252  0E2C               	movlw	44
  1059   001254  6E09               	movwf	___lmul@multiplicand^0,c
  1060   001256  0E01               	movlw	1
  1061   001258  6E0A               	movwf	(___lmul@multiplicand+1)^0,c
  1062   00125A  0E00               	movlw	0
  1063   00125C  6E0B               	movwf	(___lmul@multiplicand+2)^0,c
  1064   00125E  0E00               	movlw	0
  1065   001260  6E0C               	movwf	(___lmul@multiplicand+3)^0,c
  1066   001262  EC5B  F00F         	call	___lmul	;wreg free
  1067   001266  C005  F085         	movff	?___lmul,main@charge
  1068   00126A  C006  F086         	movff	?___lmul+1,main@charge+1
  1069   00126E  C007  F087         	movff	?___lmul+2,main@charge+2
  1070   001272  C008  F088         	movff	?___lmul+3,main@charge+3
  1071   001276                     
  1072                           ;main.c: 149:                     charge = (charge / 4096);
  1073   001276  C085  F022         	movff	main@charge,??_main
  1074   00127A  C086  F023         	movff	main@charge+1,??_main+1
  1075   00127E  C087  F024         	movff	main@charge+2,??_main+2
  1076   001282  C088  F025         	movff	main@charge+3,??_main+3
  1077   001286  0E0D               	movlw	13
  1078   001288  EF4B  F009         	goto	u1690
  1079   00128C                     u1695:
  1080   00128C  90D8               	bcf	status,0,c
  1081   00128E  3225               	rrcf	(??_main+3)^0,f,c
  1082   001290  3224               	rrcf	(??_main+2)^0,f,c
  1083   001292  3223               	rrcf	(??_main+1)^0,f,c
  1084   001294  3222               	rrcf	??_main^0,f,c
  1085   001296                     u1690:
  1086   001296  2EE8               	decfsz	wreg,f,c
  1087   001298  EF46  F009         	goto	u1695
  1088   00129C  C022  F085         	movff	??_main,main@charge
  1089   0012A0  C023  F086         	movff	??_main+1,main@charge+1
  1090   0012A4  C024  F087         	movff	??_main+2,main@charge+2
  1091   0012A8  C025  F088         	movff	??_main+3,main@charge+3
  1092   0012AC                     
  1093                           ;main.c: 150:                     txCan.frame.data1 = charge >> 8;
  1094   0012AC  C086  F090         	movff	main@charge+1,main@txCan+7
  1095   0012B0                     
  1096                           ;main.c: 151:                     txCan.frame.data2 = charge;
  1097   0012B0  C085  F091         	movff	main@charge,main@txCan+8
  1098   0012B4                     
  1099                           ;main.c: 152:                     CAN_transmit(&txCan);
  1100   0012B4  0E89               	movlw	low main@txCan
  1101   0012B6  6E17               	movwf	CAN_transmit@tempCanMsg^0,c
  1102   0012B8  0E00               	movlw	high main@txCan
  1103   0012BA  6E18               	movwf	(CAN_transmit@tempCanMsg+1)^0,c
  1104   0012BC  EC19  F00A         	call	_CAN_transmit	;wreg free
  1105   0012C0                     
  1106                           ;main.c: 153:                     flag_timer_1s = 0;
  1107   0012C0  0E00               	movlw	0
  1108   0012C2  6E37               	movwf	_flag_timer_1s^0,c
  1109   0012C4                     l3221:
  1110                           
  1111                           ;main.c: 157:                 if (Protection == 1 || Systeme == 0 || Batterie == 0) {
  1112   0012C4  042A               	decf	_Protection^0,w,c
  1113   0012C6  102B               	iorwf	(_Protection+1)^0,w,c
  1114   0012C8  B4D8               	btfsc	status,2,c
  1115   0012CA  EF69  F009         	goto	u1701
  1116   0012CE  EF6B  F009         	goto	u1700
  1117   0012D2                     u1701:
  1118   0012D2  EF7D  F009         	goto	l3227
  1119   0012D6                     u1700:
  1120   0012D6  5028               	movf	_Systeme^0,w,c
  1121   0012D8  1029               	iorwf	(_Systeme+1)^0,w,c
  1122   0012DA  B4D8               	btfsc	status,2,c
  1123   0012DC  EF72  F009         	goto	u1711
  1124   0012E0  EF74  F009         	goto	u1710
  1125   0012E4                     u1711:
  1126   0012E4  EF7D  F009         	goto	l3227
  1127   0012E8                     u1710:
  1128   0012E8  5026               	movf	_Batterie^0,w,c
  1129   0012EA  1027               	iorwf	(_Batterie+1)^0,w,c
  1130   0012EC  A4D8               	btfss	status,2,c
  1131   0012EE  EF7B  F009         	goto	u1721
  1132   0012F2  EF7D  F009         	goto	u1720
  1133   0012F6                     u1721:
  1134   0012F6  EF83  F009         	goto	l3229
  1135   0012FA                     u1720:
  1136   0012FA                     l3227:
  1137                           
  1138                           ;main.c: 158:                     etat = Off;
  1139   0012FA  0E00               	movlw	0
  1140   0012FC  6E3C               	movwf	(_etat+1)^0,c
  1141   0012FE  0E02               	movlw	2
  1142   001300  6E3B               	movwf	_etat^0,c
  1143                           
  1144                           ;main.c: 159:                 } else if (Switch == 0) {
  1145   001302  EF51  F008         	goto	l3161
  1146   001306                     l3229:
  1147   001306  502C               	movf	_Switch^0,w,c
  1148   001308  102D               	iorwf	(_Switch+1)^0,w,c
  1149   00130A  A4D8               	btfss	status,2,c
  1150   00130C  EF8A  F009         	goto	u1731
  1151   001310  EF8C  F009         	goto	u1730
  1152   001314                     u1731:
  1153   001314  EF15  F00A         	goto	l672
  1154   001318                     u1730:
  1155   001318                     l3231:
  1156                           
  1157                           ;main.c: 160:                     etat = OffSwitch;
  1158   001318  0E00               	movlw	0
  1159   00131A  6E3C               	movwf	(_etat+1)^0,c
  1160   00131C  0E00               	movlw	0
  1161   00131E  6E3B               	movwf	_etat^0,c
  1162   001320  EF51  F008         	goto	l3161
  1163   001324                     l674:
  1164   001324  848B               	bsf	139,2,c	;volatile
  1165   001326  968B               	bcf	139,3,c	;volatile
  1166   001328                     
  1167                           ;main.c: 168:                 if (Protection == 0 && Systeme == 1 && Batterie == 1) {
  1168   001328  502A               	movf	_Protection^0,w,c
  1169   00132A  102B               	iorwf	(_Protection+1)^0,w,c
  1170   00132C  A4D8               	btfss	status,2,c
  1171   00132E  EF9B  F009         	goto	u1741
  1172   001332  EF9D  F009         	goto	u1740
  1173   001336                     u1741:
  1174   001336  EF51  F008         	goto	l3161
  1175   00133A                     u1740:
  1176   00133A  0428               	decf	_Systeme^0,w,c
  1177   00133C  1029               	iorwf	(_Systeme+1)^0,w,c
  1178   00133E  A4D8               	btfss	status,2,c
  1179   001340  EFA4  F009         	goto	u1751
  1180   001344  EFA6  F009         	goto	u1750
  1181   001348                     u1751:
  1182   001348  EF51  F008         	goto	l3161
  1183   00134C                     u1750:
  1184   00134C  0426               	decf	_Batterie^0,w,c
  1185   00134E  1027               	iorwf	(_Batterie+1)^0,w,c
  1186   001350  A4D8               	btfss	status,2,c
  1187   001352  EFAD  F009         	goto	u1761
  1188   001356  EFAF  F009         	goto	u1760
  1189   00135A                     u1761:
  1190   00135A  EF51  F008         	goto	l3161
  1191   00135E                     u1760:
  1192   00135E                     
  1193                           ;main.c: 169:                     if (Switch == 1) {
  1194   00135E  042C               	decf	_Switch^0,w,c
  1195   001360  102D               	iorwf	(_Switch+1)^0,w,c
  1196   001362  A4D8               	btfss	status,2,c
  1197   001364  EFB6  F009         	goto	u1771
  1198   001368  EFB8  F009         	goto	u1770
  1199   00136C                     u1771:
  1200   00136C  EF8C  F009         	goto	l3231
  1201   001370                     u1770:
  1202   001370                     l3241:
  1203                           
  1204                           ;main.c: 170:                         etat = On;
  1205   001370  0E00               	movlw	0
  1206   001372  6E3C               	movwf	(_etat+1)^0,c
  1207   001374  0E01               	movlw	1
  1208   001376  6E3B               	movwf	_etat^0,c
  1209                           
  1210                           ;main.c: 171:                     } else {
  1211   001378  EF51  F008         	goto	l3161
  1212   00137C                     l682:
  1213   00137C  848B               	bsf	139,2,c	;volatile
  1214   00137E  968B               	bcf	139,3,c	;volatile
  1215   001380                     
  1216                           ;main.c: 180:                 if (flag_timer_1s == 1) {
  1217   001380  0437               	decf	_flag_timer_1s^0,w,c
  1218   001382  A4D8               	btfss	status,2,c
  1219   001384  EFC6  F009         	goto	u1781
  1220   001388  EFC8  F009         	goto	u1780
  1221   00138C                     u1781:
  1222   00138C  EFD3  F009         	goto	l3253
  1223   001390                     u1780:
  1224   001390                     
  1225                           ;main.c: 181:                     txCan.frame.data0 = 0x00;
  1226   001390  0E00               	movlw	0
  1227   001392  0100               	movlb	0	; () banked
  1228   001394  6F8F               	movwf	(main@txCan+6)& (0+255),b
  1229   001396                     
  1230                           ; BSR set to: 0
  1231                           ;main.c: 182:                     CAN_transmit(&txCan);
  1232   001396  0E89               	movlw	low main@txCan
  1233   001398  6E17               	movwf	CAN_transmit@tempCanMsg^0,c
  1234   00139A  0E00               	movlw	high main@txCan
  1235   00139C  6E18               	movwf	(CAN_transmit@tempCanMsg+1)^0,c
  1236   00139E  EC19  F00A         	call	_CAN_transmit	;wreg free
  1237   0013A2                     
  1238                           ;main.c: 183:                     flag_timer_1s = 0;
  1239   0013A2  0E00               	movlw	0
  1240   0013A4  6E37               	movwf	_flag_timer_1s^0,c
  1241   0013A6                     l3253:
  1242                           
  1243                           ;main.c: 186:                 if (Protection == 1 || Systeme == 0 || Batterie == 0) {
  1244   0013A6  042A               	decf	_Protection^0,w,c
  1245   0013A8  102B               	iorwf	(_Protection+1)^0,w,c
  1246   0013AA  B4D8               	btfsc	status,2,c
  1247   0013AC  EFDA  F009         	goto	u1791
  1248   0013B0  EFDC  F009         	goto	u1790
  1249   0013B4                     u1791:
  1250   0013B4  EF7D  F009         	goto	l3227
  1251   0013B8                     u1790:
  1252   0013B8  5028               	movf	_Systeme^0,w,c
  1253   0013BA  1029               	iorwf	(_Systeme+1)^0,w,c
  1254   0013BC  B4D8               	btfsc	status,2,c
  1255   0013BE  EFE3  F009         	goto	u1801
  1256   0013C2  EFE5  F009         	goto	u1800
  1257   0013C6                     u1801:
  1258   0013C6  EF7D  F009         	goto	l3227
  1259   0013CA                     u1800:
  1260   0013CA  5026               	movf	_Batterie^0,w,c
  1261   0013CC  1027               	iorwf	(_Batterie+1)^0,w,c
  1262   0013CE  A4D8               	btfss	status,2,c
  1263   0013D0  EFEC  F009         	goto	u1811
  1264   0013D4  EFEE  F009         	goto	u1810
  1265   0013D8                     u1811:
  1266   0013D8  EFF0  F009         	goto	l3261
  1267   0013DC                     u1810:
  1268   0013DC  EF7D  F009         	goto	l3227
  1269   0013E0                     l3261:
  1270   0013E0  042C               	decf	_Switch^0,w,c
  1271   0013E2  102D               	iorwf	(_Switch+1)^0,w,c
  1272   0013E4  A4D8               	btfss	status,2,c
  1273   0013E6  EFF7  F009         	goto	u1821
  1274   0013EA  EFF9  F009         	goto	u1820
  1275   0013EE                     u1821:
  1276   0013EE  EF15  F00A         	goto	l672
  1277   0013F2                     u1820:
  1278   0013F2  EFB8  F009         	goto	l3241
  1279   0013F6                     l3267:
  1280   0013F6  C03B  F022         	movff	_etat,??_main
  1281   0013FA  C03C  F023         	movff	_etat+1,??_main+1
  1282                           
  1283                           ; Switch on 2 bytes has been partitioned into a top level switch of size 1, and 1 sub-sw
      +                          itches
  1284                           ; Switch size 1, requested type "simple"
  1285                           ; Number of cases is 1, Range of values is 0 to 0
  1286                           ; switch strategies available:
  1287                           ; Name         Instructions Cycles
  1288                           ; simple_byte            4     3 (average)
  1289                           ;	Chosen strategy is simple_byte
  1290   0013FE  5023               	movf	(??_main+1)^0,w,c
  1291   001400  0A00               	xorlw	0	; case 0
  1292   001402  B4D8               	btfsc	status,2,c
  1293   001404  EF06  F00A         	goto	l3293
  1294   001408  EF51  F008         	goto	l3161
  1295   00140C                     l3293:
  1296                           
  1297                           ; Switch size 1, requested type "simple"
  1298                           ; Number of cases is 3, Range of values is 0 to 2
  1299                           ; switch strategies available:
  1300                           ; Name         Instructions Cycles
  1301                           ; simple_byte           10     6 (average)
  1302                           ;	Chosen strategy is simple_byte
  1303   00140C  5022               	movf	??_main^0,w,c
  1304   00140E  0A00               	xorlw	0	; case 0
  1305   001410  B4D8               	btfsc	status,2,c
  1306   001412  EFBE  F009         	goto	l682
  1307   001416  0A01               	xorlw	1	; case 1
  1308   001418  B4D8               	btfsc	status,2,c
  1309   00141A  EFEC  F008         	goto	l658
  1310   00141E  0A03               	xorlw	3	; case 2
  1311   001420  B4D8               	btfsc	status,2,c
  1312   001422  EF92  F009         	goto	l674
  1313   001426  EF51  F008         	goto	l3161
  1314   00142A                     l672:
  1315   00142A  EF51  F008         	goto	l3161
  1316   00142E  EF3A  F000         	goto	start
  1317   001432                     __end_of_main:
  1318                           	callstack 0
  1319                           
  1320 ;; *************** function _printf *****************
  1321 ;; Defined at:
  1322 ;;		line 5 in file "C:\Program Files\Microchip\xc8\v2.40\pic\sources\c99\common\printf.c"
  1323 ;; Parameters:    Size  Location     Type
  1324 ;;  fmt             2   29[COMRAM] PTR const unsigned char 
  1325 ;;		 -> STR_1(13), 
  1326 ;; Auto vars:     Size  Location     Type
  1327 ;;  ap              2   31[COMRAM] PTR void [1]
  1328 ;;		 -> ?_printf(2), 
  1329 ;;  ret             2    0        int 
  1330 ;; Return value:  Size  Location     Type
  1331 ;;                  2   29[COMRAM] int 
  1332 ;; Registers used:
  1333 ;;		wreg, fsr1l, fsr1h, fsr2l, fsr2h, status,2, status,0, tblptrl, tblptrh, tblptru, cstack
  1334 ;; Tracked objects:
  1335 ;;		On entry : 0/0
  1336 ;;		On exit  : 0/0
  1337 ;;		Unchanged: 0/0
  1338 ;; Data sizes:     COMRAM   BANK0   BANK1   BANK2   BANK3   BANK4   BANK5   BANK6   BANK7   BANK8   BANK9  BANK10  BANK1
      +1  BANK12  BANK13  BANK14
  1339 ;;      Params:         2       0       0       0       0       0       0       0       0       0       0       0       
      +0       0       0       0
  1340 ;;      Locals:         2       0       0       0       0       0       0       0       0       0       0       0       
      +0       0       0       0
  1341 ;;      Temps:          0       0       0       0       0       0       0       0       0       0       0       0       
      +0       0       0       0
  1342 ;;      Totals:         4       0       0       0       0       0       0       0       0       0       0       0       
      +0       0       0       0
  1343 ;;Total ram usage:        4 bytes
  1344 ;; Hardware stack levels used: 1
  1345 ;; Hardware stack levels required when called: 9
  1346 ;; This function calls:
  1347 ;;		_vfprintf
  1348 ;; This function is called by:
  1349 ;;		_main
  1350 ;; This function uses a non-reentrant model
  1351 ;;
  1352                           
  1353                           	psect	text1
  1354   002114                     __ptext1:
  1355                           	callstack 0
  1356   002114                     _printf:
  1357                           	callstack 21
  1358   002114  0E20               	movlw	low (?_printf+2)
  1359   002116  6E20               	movwf	printf@ap^0,c
  1360   002118  0E00               	movlw	high (?_printf+2)
  1361   00211A  6E21               	movwf	(printf@ap+1)^0,c
  1362   00211C  0E00               	movlw	0
  1363   00211E  6E16               	movwf	vfprintf@fp^0,c
  1364   002120  0E00               	movlw	0
  1365   002122  6E17               	movwf	(vfprintf@fp+1)^0,c
  1366   002124  C01E  F018         	movff	printf@fmt,vfprintf@fmt
  1367   002128  C01F  F019         	movff	printf@fmt+1,vfprintf@fmt+1
  1368   00212C  0E20               	movlw	low printf@ap
  1369   00212E  6E1A               	movwf	vfprintf@ap^0,c
  1370   002130  0E00               	movlw	high printf@ap
  1371   002132  6E1B               	movwf	(vfprintf@ap+1)^0,c
  1372   002134  EC90  F00F         	call	_vfprintf	;wreg free
  1373   002138  0012               	return		;funcret
  1374   00213A                     __end_of_printf:
  1375                           	callstack 0
  1376                           
  1377 ;; *************** function _vfprintf *****************
  1378 ;; Defined at:
  1379 ;;		line 1520 in file "C:\Program Files\Microchip\xc8\v2.40\pic\sources\c99\common\doprnt.c"
  1380 ;; Parameters:    Size  Location     Type
  1381 ;;  fp              2   21[COMRAM] PTR struct _IO_FILE
  1382 ;;		 -> NULL(0), 
  1383 ;;  fmt             2   23[COMRAM] PTR const unsigned char 
  1384 ;;		 -> STR_1(13), 
  1385 ;;  ap              2   25[COMRAM] PTR PTR void 
  1386 ;;		 -> printf@ap(2), 
  1387 ;; Auto vars:     Size  Location     Type
  1388 ;;  cfmt            2   27[COMRAM] PTR unsigned char 
  1389 ;;		 -> STR_1(13), 
  1390 ;; Return value:  Size  Location     Type
  1391 ;;                  2   21[COMRAM] int 
  1392 ;; Registers used:
  1393 ;;		wreg, fsr1l, fsr1h, fsr2l, fsr2h, status,2, status,0, tblptrl, tblptrh, tblptru, cstack
  1394 ;; Tracked objects:
  1395 ;;		On entry : 0/0
  1396 ;;		On exit  : 0/0
  1397 ;;		Unchanged: 0/0
  1398 ;; Data sizes:     COMRAM   BANK0   BANK1   BANK2   BANK3   BANK4   BANK5   BANK6   BANK7   BANK8   BANK9  BANK10  BANK1
      +1  BANK12  BANK13  BANK14
  1399 ;;      Params:         6       0       0       0       0       0       0       0       0       0       0       0       
      +0       0       0       0
  1400 ;;      Locals:         2       0       0       0       0       0       0       0       0       0       0       0       
      +0       0       0       0
  1401 ;;      Temps:          0       0       0       0       0       0       0       0       0       0       0       0       
      +0       0       0       0
  1402 ;;      Totals:         8       0       0       0       0       0       0       0       0       0       0       0       
      +0       0       0       0
  1403 ;;Total ram usage:        8 bytes
  1404 ;; Hardware stack levels used: 1
  1405 ;; Hardware stack levels required when called: 8
  1406 ;; This function calls:
  1407 ;;		_vfpfcnvrt
  1408 ;; This function is called by:
  1409 ;;		_printf
  1410 ;; This function uses a non-reentrant model
  1411 ;;
  1412                           
  1413                           	psect	text2
  1414   001F20                     __ptext2:
  1415                           	callstack 0
  1416   001F20                     _vfprintf:
  1417                           	callstack 21
  1418   001F20                     
  1419                           ;C:\Program Files\Microchip\xc8\v2.40\pic\sources\c99\common\doprnt.c: 1520: int vfprint
      +                          f(FILE *fp, const char *fmt, va_list ap);C:\Program Files\Microchip\xc8\v2.40\pic\source
      +                          s\c99\common\doprnt.c: 1521: {;C:\Program Files\Microchip\xc8\v2.40\pic\sources\c99\comm
      +                          on\doprnt.c: 1523:     char *cfmt;;C:\Program Files\Microchip\xc8\v2.40\pic\sources\c99\
      +                          common\doprnt.c: 1525:     cfmt = (char *)fmt;
  1420   001F20  C018  F01C         	movff	vfprintf@fmt,vfprintf@cfmt
  1421   001F24  C019  F01D         	movff	vfprintf@fmt+1,vfprintf@cfmt+1
  1422                           
  1423                           ;C:\Program Files\Microchip\xc8\v2.40\pic\sources\c99\common\doprnt.c: 1529:     while (
      +                          *cfmt) {
  1424   001F28  EFA4  F00F         	goto	l2905
  1425   001F2C                     l2903:
  1426                           
  1427                           ;C:\Program Files\Microchip\xc8\v2.40\pic\sources\c99\common\doprnt.c: 1533:    vfpfcnvr
      +                          t(fp, &cfmt, ap);
  1428   001F2C  C016  F010         	movff	vfprintf@fp,vfpfcnvrt@fp
  1429   001F30  C017  F011         	movff	vfprintf@fp+1,vfpfcnvrt@fp+1
  1430   001F34  0E1C               	movlw	low vfprintf@cfmt
  1431   001F36  6E12               	movwf	vfpfcnvrt@fmt^0,c
  1432   001F38  0E00               	movlw	high vfprintf@cfmt
  1433   001F3A  6E13               	movwf	(vfpfcnvrt@fmt+1)^0,c
  1434   001F3C  C01A  F014         	movff	vfprintf@ap,vfpfcnvrt@ap
  1435   001F40  C01B  F015         	movff	vfprintf@ap+1,vfpfcnvrt@ap+1
  1436   001F44  ECDF  F00E         	call	_vfpfcnvrt	;wreg free
  1437   001F48                     l2905:
  1438                           
  1439                           ;C:\Program Files\Microchip\xc8\v2.40\pic\sources\c99\common\doprnt.c: 1529:     while (
      +                          *cfmt) {
  1440   001F48  C01C  FFF6         	movff	vfprintf@cfmt,tblptrl
  1441   001F4C  C01D  FFF7         	movff	vfprintf@cfmt+1,tblptrh
  1442   001F50                     	if	0	;tblptru may be non-zero
  1443   001F50                     	endif
  1444   001F50                     	if	0	;tblptru may be non-zero
  1445   001F50                     	endif
  1446   001F50  0008               	tblrd		*
  1447   001F52  50F5               	movf	tablat,w,c
  1448   001F54  0900               	iorlw	0
  1449   001F56  A4D8               	btfss	status,2,c
  1450   001F58  EFB0  F00F         	goto	u1451
  1451   001F5C  EFB2  F00F         	goto	u1450
  1452   001F60                     u1451:
  1453   001F60  EF96  F00F         	goto	l2903
  1454   001F64                     u1450:
  1455   001F64                     
  1456                           ;C:\Program Files\Microchip\xc8\v2.40\pic\sources\c99\common\doprnt.c: 1538:  return 0;
  1457   001F64  0E00               	movlw	0
  1458   001F66  6E17               	movwf	(?_vfprintf+1)^0,c
  1459   001F68  0E00               	movlw	0
  1460   001F6A  6E16               	movwf	?_vfprintf^0,c
  1461   001F6C  0012               	return		;funcret
  1462   001F6E                     __end_of_vfprintf:
  1463                           	callstack 0
  1464                           
  1465 ;; *************** function _vfpfcnvrt *****************
  1466 ;; Defined at:
  1467 ;;		line 1007 in file "C:\Program Files\Microchip\xc8\v2.40\pic\sources\c99\common\doprnt.c"
  1468 ;; Parameters:    Size  Location     Type
  1469 ;;  fp              2   15[COMRAM] PTR struct _IO_FILE
  1470 ;;		 -> NULL(0), 
  1471 ;;  fmt             2   17[COMRAM] PTR PTR unsigned char 
  1472 ;;		 -> vfprintf@cfmt(2), 
  1473 ;;  ap              2   19[COMRAM] PTR PTR void 
  1474 ;;		 -> printf@ap(2), 
  1475 ;; Auto vars:     Size  Location     Type
  1476 ;;  convarg         8    0        struct .
  1477 ;;  cp              3    0        PTR unsigned char 
  1478 ;;  i               2    0        int 
  1479 ;;  done            2    0        int 
  1480 ;;  c               1    0        unsigned char 
  1481 ;; Return value:  Size  Location     Type
  1482 ;;                  1    wreg      void 
  1483 ;; Registers used:
  1484 ;;		wreg, fsr1l, fsr1h, fsr2l, fsr2h, status,2, status,0, tblptrl, tblptrh, tblptru, cstack
  1485 ;; Tracked objects:
  1486 ;;		On entry : 0/0
  1487 ;;		On exit  : 0/0
  1488 ;;		Unchanged: 0/0
  1489 ;; Data sizes:     COMRAM   BANK0   BANK1   BANK2   BANK3   BANK4   BANK5   BANK6   BANK7   BANK8   BANK9  BANK10  BANK1
      +1  BANK12  BANK13  BANK14
  1490 ;;      Params:         6       0       0       0       0       0       0       0       0       0       0       0       
      +0       0       0       0
  1491 ;;      Locals:         0       0       0       0       0       0       0       0       0       0       0       0       
      +0       0       0       0
  1492 ;;      Temps:          0       0       0       0       0       0       0       0       0       0       0       0       
      +0       0       0       0
  1493 ;;      Totals:         6       0       0       0       0       0       0       0       0       0       0       0       
      +0       0       0       0
  1494 ;;Total ram usage:        6 bytes
  1495 ;; Hardware stack levels used: 1
  1496 ;; Hardware stack levels required when called: 7
  1497 ;; This function calls:
  1498 ;;		_fputc
  1499 ;; This function is called by:
  1500 ;;		_vfprintf
  1501 ;; This function uses a non-reentrant model
  1502 ;;
  1503                           
  1504                           	psect	text3
  1505   001DBE                     __ptext3:
  1506                           	callstack 0
  1507   001DBE                     _vfpfcnvrt:
  1508                           	callstack 21
  1509   001DBE                     
  1510                           ;C:\Program Files\Microchip\xc8\v2.40\pic\sources\c99\common\doprnt.c: 1007: vfpfcnvrt(F
      +                          ILE *fp, char *fmt[], va_list ap);C:\Program Files\Microchip\xc8\v2.40\pic\sources\c99\c
      +                          ommon\doprnt.c: 1008: {;C:\Program Files\Microchip\xc8\v2.40\pic\sources\c99\common\dopr
      +                          nt.c: 1009:     char c, *cp;;C:\Program Files\Microchip\xc8\v2.40\pic\sources\c99\common
      +                          \doprnt.c: 1010:     int done, i;;C:\Program Files\Microchip\xc8\v2.40\pic\sources\c99\c
      +                          ommon\doprnt.c: 1016:  } convarg;;C:\Program Files\Microchip\xc8\v2.40\pic\sources\c99\c
      +                          ommon\doprnt.c: 1019:     if ((*fmt)[0] == '%') {
  1511   001DBE  C012  FFD9         	movff	vfpfcnvrt@fmt,fsr2l
  1512   001DC2  C013  FFDA         	movff	vfpfcnvrt@fmt+1,fsr2h
  1513   001DC6  CFDE FFF6          	movff	postinc2,tblptrl
  1514   001DCA  CFDD FFF7          	movff	postdec2,tblptrh
  1515   001DCE                     	if	0	;tblptru may be non-zero
  1516   001DCE                     	endif
  1517   001DCE                     	if	0	;tblptru may be non-zero
  1518   001DCE                     	endif
  1519   001DCE  0008               	tblrd		*
  1520   001DD0  50F5               	movf	tablat,w,c
  1521   001DD2  0A25               	xorlw	37
  1522   001DD4  A4D8               	btfss	status,2,c
  1523   001DD6  EFEF  F00E         	goto	u1371
  1524   001DDA  EFF1  F00E         	goto	u1370
  1525   001DDE                     u1371:
  1526   001DDE  EF0A  F00F         	goto	l2777
  1527   001DE2                     u1370:
  1528   001DE2                     
  1529                           ;C:\Program Files\Microchip\xc8\v2.40\pic\sources\c99\common\doprnt.c: 1020:         ++*
      +                          fmt;
  1530   001DE2  C012  FFD9         	movff	vfpfcnvrt@fmt,fsr2l
  1531   001DE6  C013  FFDA         	movff	vfpfcnvrt@fmt+1,fsr2h
  1532   001DEA  2ADE               	incf	postinc2,f,c
  1533   001DEC  0E00               	movlw	0
  1534   001DEE  22DD               	addwfc	postdec2,f,c
  1535   001DF0                     
  1536                           ;C:\Program Files\Microchip\xc8\v2.40\pic\sources\c99\common\doprnt.c: 1022:         fla
      +                          gs = width = 0;
  1537   001DF0  0E00               	movlw	0
  1538   001DF2  0100               	movlb	0	; () banked
  1539   001DF4  6F81               	movwf	(_width+1)& (0+255),b
  1540   001DF6  0E00               	movlw	0
  1541   001DF8  6F80               	movwf	_width& (0+255),b
  1542   001DFA  C080  F034         	movff	_width,_flags
  1543   001DFE                     
  1544                           ; BSR set to: 0
  1545                           ;C:\Program Files\Microchip\xc8\v2.40\pic\sources\c99\common\doprnt.c: 1023:         pre
      +                          c = -1;
  1546   001DFE  6982               	setf	_prec& (0+255),b
  1547   001E00  6983               	setf	(_prec+1)& (0+255),b
  1548   001E02                     l2773:
  1549                           
  1550                           ;C:\Program Files\Microchip\xc8\v2.40\pic\sources\c99\common\doprnt.c: 1509:         ++*
      +                          fmt;
  1551   001E02  C012  FFD9         	movff	vfpfcnvrt@fmt,fsr2l
  1552   001E06  C013  FFDA         	movff	vfpfcnvrt@fmt+1,fsr2h
  1553   001E0A  2ADE               	incf	postinc2,f,c
  1554   001E0C  0E00               	movlw	0
  1555   001E0E  22DD               	addwfc	postdec2,f,c
  1556   001E10  EF1E  F00F         	goto	l1401
  1557   001E14                     l2777:
  1558                           
  1559                           ;C:\Program Files\Microchip\xc8\v2.40\pic\sources\c99\common\doprnt.c: 1514:     fputc((
      +                          int)(*fmt)[0], fp);
  1560   001E14  C012  FFD9         	movff	vfpfcnvrt@fmt,fsr2l
  1561   001E18  C013  FFDA         	movff	vfpfcnvrt@fmt+1,fsr2h
  1562   001E1C  CFDE FFF6          	movff	postinc2,tblptrl
  1563   001E20  CFDD FFF7          	movff	postdec2,tblptrh
  1564   001E24                     	if	0	;tblptru may be non-zero
  1565   001E24                     	endif
  1566   001E24                     	if	0	;tblptru may be non-zero
  1567   001E24                     	endif
  1568   001E24  0008               	tblrd		*
  1569   001E26  50F5               	movf	tablat,w,c
  1570   001E28  6E07               	movwf	fputc@c^0,c
  1571   001E2A  6A08               	clrf	(fputc@c+1)^0,c
  1572   001E2C  C010  F009         	movff	vfpfcnvrt@fp,fputc@fp
  1573   001E30  C011  F00A         	movff	vfpfcnvrt@fp+1,fputc@fp+1
  1574   001E34  EC94  F00E         	call	_fputc	;wreg free
  1575   001E38  EF01  F00F         	goto	l2773
  1576   001E3C                     l1401:
  1577   001E3C  0012               	return		;funcret
  1578   001E3E                     __end_of_vfpfcnvrt:
  1579                           	callstack 0
  1580                           
  1581 ;; *************** function _fputc *****************
  1582 ;; Defined at:
  1583 ;;		line 8 in file "C:\Program Files\Microchip\xc8\v2.40\pic\sources\c99\common\nf_fputc.c"
  1584 ;; Parameters:    Size  Location     Type
  1585 ;;  c               2    6[COMRAM] int 
  1586 ;;  fp              2    8[COMRAM] PTR struct _IO_FILE
  1587 ;;		 -> NULL(0), 
  1588 ;; Auto vars:     Size  Location     Type
  1589 ;;		None
  1590 ;; Return value:  Size  Location     Type
  1591 ;;                  2    6[COMRAM] int 
  1592 ;; Registers used:
  1593 ;;		wreg, fsr1l, fsr1h, fsr2l, fsr2h, status,2, status,0, cstack
  1594 ;; Tracked objects:
  1595 ;;		On entry : 0/0
  1596 ;;		On exit  : 0/0
  1597 ;;		Unchanged: 0/0
  1598 ;; Data sizes:     COMRAM   BANK0   BANK1   BANK2   BANK3   BANK4   BANK5   BANK6   BANK7   BANK8   BANK9  BANK10  BANK1
      +1  BANK12  BANK13  BANK14
  1599 ;;      Params:         4       0       0       0       0       0       0       0       0       0       0       0       
      +0       0       0       0
  1600 ;;      Locals:         0       0       0       0       0       0       0       0       0       0       0       0       
      +0       0       0       0
  1601 ;;      Temps:          5       0       0       0       0       0       0       0       0       0       0       0       
      +0       0       0       0
  1602 ;;      Totals:         9       0       0       0       0       0       0       0       0       0       0       0       
      +0       0       0       0
  1603 ;;Total ram usage:        9 bytes
  1604 ;; Hardware stack levels used: 1
  1605 ;; Hardware stack levels required when called: 6
  1606 ;; This function calls:
  1607 ;;		_putch
  1608 ;; This function is called by:
  1609 ;;		_vfpfcnvrt
  1610 ;; This function uses a non-reentrant model
  1611 ;;
  1612                           
  1613                           	psect	text4
  1614   001D28                     __ptext4:
  1615                           	callstack 0
  1616   001D28                     _fputc:
  1617                           	callstack 21
  1618   001D28  5009               	movf	fputc@fp^0,w,c
  1619   001D2A  100A               	iorwf	(fputc@fp+1)^0,w,c
  1620   001D2C  B4D8               	btfsc	status,2,c
  1621   001D2E  EF9B  F00E         	goto	u1331
  1622   001D32  EF9D  F00E         	goto	u1330
  1623   001D36                     u1331:
  1624   001D36  EFA6  F00E         	goto	l2745
  1625   001D3A                     u1330:
  1626   001D3A  5009               	movf	fputc@fp^0,w,c
  1627   001D3C  100A               	iorwf	(fputc@fp+1)^0,w,c
  1628   001D3E  A4D8               	btfss	status,2,c
  1629   001D40  EFA4  F00E         	goto	u1341
  1630   001D44  EFA6  F00E         	goto	u1340
  1631   001D48                     u1341:
  1632   001D48  EFAB  F00E         	goto	l2747
  1633   001D4C                     u1340:
  1634   001D4C                     l2745:
  1635   001D4C  5007               	movf	fputc@c^0,w,c
  1636   001D4E  ECDA  F010         	call	_putch
  1637   001D52  EFDE  F00E         	goto	l1419
  1638   001D56                     l2747:
  1639   001D56  EE20 F009          	lfsr	2,9
  1640   001D5A  5009               	movf	fputc@fp^0,w,c
  1641   001D5C  26D9               	addwf	fsr2l,f,c
  1642   001D5E  500A               	movf	(fputc@fp+1)^0,w,c
  1643   001D60  22DA               	addwfc	fsr2h,f,c
  1644   001D62  50DE               	movf	postinc2,w,c
  1645   001D64  10DE               	iorwf	postinc2,w,c
  1646   001D66  B4D8               	btfsc	status,2,c
  1647   001D68  EFB8  F00E         	goto	u1351
  1648   001D6C  EFBA  F00E         	goto	u1350
  1649   001D70                     u1351:
  1650   001D70  EFD5  F00E         	goto	l2751
  1651   001D74                     u1350:
  1652   001D74  EE20 F009          	lfsr	2,9
  1653   001D78  5009               	movf	fputc@fp^0,w,c
  1654   001D7A  26D9               	addwf	fsr2l,f,c
  1655   001D7C  500A               	movf	(fputc@fp+1)^0,w,c
  1656   001D7E  22DA               	addwfc	fsr2h,f,c
  1657   001D80  EE10 F003          	lfsr	1,3
  1658   001D84  5009               	movf	fputc@fp^0,w,c
  1659   001D86  26E1               	addwf	fsr1l,f,c
  1660   001D88  500A               	movf	(fputc@fp+1)^0,w,c
  1661   001D8A  22E2               	addwfc	fsr1h,f,c
  1662   001D8C  50DE               	movf	postinc2,w,c
  1663   001D8E  5CE6               	subwf	postinc1,w,c
  1664   001D90  50E6               	movf	postinc1,w,c
  1665   001D92  0A80               	xorlw	128
  1666   001D94  6E0F               	movwf	(??_fputc+4)^0,c
  1667   001D96  50DE               	movf	postinc2,w,c
  1668   001D98  0A80               	xorlw	128
  1669   001D9A  580F               	subwfb	(??_fputc+4)^0,w,c
  1670   001D9C  B0D8               	btfsc	status,0,c
  1671   001D9E  EFD3  F00E         	goto	u1361
  1672   001DA2  EFD5  F00E         	goto	u1360
  1673   001DA6                     u1361:
  1674   001DA6  EFDE  F00E         	goto	l1419
  1675   001DAA                     u1360:
  1676   001DAA                     l2751:
  1677   001DAA  EE20 F003          	lfsr	2,3
  1678   001DAE  5009               	movf	fputc@fp^0,w,c
  1679   001DB0  26D9               	addwf	fsr2l,f,c
  1680   001DB2  500A               	movf	(fputc@fp+1)^0,w,c
  1681   001DB4  22DA               	addwfc	fsr2h,f,c
  1682   001DB6  2ADE               	incf	postinc2,f,c
  1683   001DB8  0E00               	movlw	0
  1684   001DBA  22DD               	addwfc	postdec2,f,c
  1685   001DBC                     l1419:
  1686   001DBC  0012               	return		;funcret
  1687   001DBE                     __end_of_fputc:
  1688                           	callstack 0
  1689                           
  1690 ;; *************** function _putch *****************
  1691 ;; Defined at:
  1692 ;;		line 146 in file "mcc_generated_files/eusart1.c"
  1693 ;; Parameters:    Size  Location     Type
  1694 ;;  txData          1    wreg     unsigned char 
  1695 ;; Auto vars:     Size  Location     Type
  1696 ;;  txData          1    5[COMRAM] unsigned char 
  1697 ;; Return value:  Size  Location     Type
  1698 ;;                  1    wreg      void 
  1699 ;; Registers used:
  1700 ;;		wreg, status,2, cstack
  1701 ;; Tracked objects:
  1702 ;;		On entry : 0/0
  1703 ;;		On exit  : 0/0
  1704 ;;		Unchanged: 0/0
  1705 ;; Data sizes:     COMRAM   BANK0   BANK1   BANK2   BANK3   BANK4   BANK5   BANK6   BANK7   BANK8   BANK9  BANK10  BANK1
      +1  BANK12  BANK13  BANK14
  1706 ;;      Params:         0       0       0       0       0       0       0       0       0       0       0       0       
      +0       0       0       0
  1707 ;;      Locals:         1       0       0       0       0       0       0       0       0       0       0       0       
      +0       0       0       0
  1708 ;;      Temps:          0       0       0       0       0       0       0       0       0       0       0       0       
      +0       0       0       0
  1709 ;;      Totals:         1       0       0       0       0       0       0       0       0       0       0       0       
      +0       0       0       0
  1710 ;;Total ram usage:        1 bytes
  1711 ;; Hardware stack levels used: 1
  1712 ;; Hardware stack levels required when called: 5
  1713 ;; This function calls:
  1714 ;;		_EUSART1_Write
  1715 ;; This function is called by:
  1716 ;;		_fputc
  1717 ;; This function uses a non-reentrant model
  1718 ;;
  1719                           
  1720                           	psect	text5
  1721   0021B4                     __ptext5:
  1722                           	callstack 0
  1723   0021B4                     _putch:
  1724                           	callstack 21
  1725                           
  1726                           ;incstack = 0
  1727                           ;putch@txData stored from wreg
  1728   0021B4  6E06               	movwf	putch@txData^0,c
  1729   0021B6                     
  1730                           ;mcc_generated_files/eusart1.c: 146: void putch(char txData);mcc_generated_files/eusart1
      +                          .c: 147: {;mcc_generated_files/eusart1.c: 148:     EUSART1_Write(txData);
  1731   0021B6  5006               	movf	putch@txData^0,w,c
  1732   0021B8  ECBB  F010         	call	_EUSART1_Write
  1733   0021BC  0012               	return		;funcret
  1734   0021BE                     __end_of_putch:
  1735                           	callstack 0
  1736                           
  1737 ;; *************** function _EUSART1_Write *****************
  1738 ;; Defined at:
  1739 ;;		line 132 in file "mcc_generated_files/eusart1.c"
  1740 ;; Parameters:    Size  Location     Type
  1741 ;;  txData          1    wreg     unsigned char 
  1742 ;; Auto vars:     Size  Location     Type
  1743 ;;  txData          1    4[COMRAM] unsigned char 
  1744 ;; Return value:  Size  Location     Type
  1745 ;;                  1    wreg      void 
  1746 ;; Registers used:
  1747 ;;		wreg
  1748 ;; Tracked objects:
  1749 ;;		On entry : 0/0
  1750 ;;		On exit  : 0/0
  1751 ;;		Unchanged: 0/0
  1752 ;; Data sizes:     COMRAM   BANK0   BANK1   BANK2   BANK3   BANK4   BANK5   BANK6   BANK7   BANK8   BANK9  BANK10  BANK1
      +1  BANK12  BANK13  BANK14
  1753 ;;      Params:         0       0       0       0       0       0       0       0       0       0       0       0       
      +0       0       0       0
  1754 ;;      Locals:         1       0       0       0       0       0       0       0       0       0       0       0       
      +0       0       0       0
  1755 ;;      Temps:          0       0       0       0       0       0       0       0       0       0       0       0       
      +0       0       0       0
  1756 ;;      Totals:         1       0       0       0       0       0       0       0       0       0       0       0       
      +0       0       0       0
  1757 ;;Total ram usage:        1 bytes
  1758 ;; Hardware stack levels used: 1
  1759 ;; Hardware stack levels required when called: 4
  1760 ;; This function calls:
  1761 ;;		Nothing
  1762 ;; This function is called by:
  1763 ;;		_putch
  1764 ;;		_main
  1765 ;; This function uses a non-reentrant model
  1766 ;;
  1767                           
  1768                           	psect	text6
  1769   002176                     __ptext6:
  1770                           	callstack 0
  1771   002176                     _EUSART1_Write:
  1772                           	callstack 21
  1773                           
  1774                           ;incstack = 0
  1775                           ;EUSART1_Write@txData stored from wreg
  1776   002176  6E05               	movwf	EUSART1_Write@txData^0,c
  1777   002178                     l525:
  1778                           
  1779                           ;mcc_generated_files/eusart1.c: 134:     while(0 == PIR1bits.TX1IF)
  1780   002178  A89E               	btfss	158,4,c	;volatile
  1781   00217A  EFC1  F010         	goto	u1321
  1782   00217E  EFC3  F010         	goto	u1320
  1783   002182                     u1321:
  1784   002182  EFBC  F010         	goto	l525
  1785   002186                     u1320:
  1786   002186                     
  1787                           ;mcc_generated_files/eusart1.c: 138:     TXREG1 = txData;
  1788   002186  C005  FFAD         	movff	EUSART1_Write@txData,4013	;volatile
  1789   00218A  0012               	return		;funcret
  1790   00218C                     __end_of_EUSART1_Write:
  1791                           	callstack 0
  1792                           
  1793 ;; *************** function ___lmul *****************
  1794 ;; Defined at:
  1795 ;;		line 15 in file "C:\Program Files\Microchip\xc8\v2.40\pic\sources\c99\common\Umul32.c"
  1796 ;; Parameters:    Size  Location     Type
  1797 ;;  multiplier      4    4[COMRAM] unsigned long 
  1798 ;;  multiplicand    4    8[COMRAM] unsigned long 
  1799 ;; Auto vars:     Size  Location     Type
  1800 ;;  product         4   12[COMRAM] unsigned long 
  1801 ;; Return value:  Size  Location     Type
  1802 ;;                  4    4[COMRAM] unsigned long 
  1803 ;; Registers used:
  1804 ;;		wreg, status,2, status,0
  1805 ;; Tracked objects:
  1806 ;;		On entry : 0/0
  1807 ;;		On exit  : 0/0
  1808 ;;		Unchanged: 0/0
  1809 ;; Data sizes:     COMRAM   BANK0   BANK1   BANK2   BANK3   BANK4   BANK5   BANK6   BANK7   BANK8   BANK9  BANK10  BANK1
      +1  BANK12  BANK13  BANK14
  1810 ;;      Params:         8       0       0       0       0       0       0       0       0       0       0       0       
      +0       0       0       0
  1811 ;;      Locals:         4       0       0       0       0       0       0       0       0       0       0       0       
      +0       0       0       0
  1812 ;;      Temps:          0       0       0       0       0       0       0       0       0       0       0       0       
      +0       0       0       0
  1813 ;;      Totals:        12       0       0       0       0       0       0       0       0       0       0       0       
      +0       0       0       0
  1814 ;;Total ram usage:       12 bytes
  1815 ;; Hardware stack levels used: 1
  1816 ;; Hardware stack levels required when called: 4
  1817 ;; This function calls:
  1818 ;;		Nothing
  1819 ;; This function is called by:
  1820 ;;		_main
  1821 ;; This function uses a non-reentrant model
  1822 ;;
  1823                           
  1824                           	psect	text7
  1825   001EB6                     __ptext7:
  1826                           	callstack 0
  1827   001EB6                     ___lmul:
  1828                           	callstack 26
  1829   001EB6  0E00               	movlw	0
  1830   001EB8  6E0D               	movwf	___lmul@product^0,c
  1831   001EBA  0E00               	movlw	0
  1832   001EBC  6E0E               	movwf	(___lmul@product+1)^0,c
  1833   001EBE  0E00               	movlw	0
  1834   001EC0  6E0F               	movwf	(___lmul@product+2)^0,c
  1835   001EC2  0E00               	movlw	0
  1836   001EC4  6E10               	movwf	(___lmul@product+3)^0,c
  1837   001EC6                     l3117:
  1838   001EC6  A005               	btfss	___lmul@multiplier^0,0,c
  1839   001EC8  EF68  F00F         	goto	u1541
  1840   001ECC  EF6A  F00F         	goto	u1540
  1841   001ED0                     u1541:
  1842   001ED0  EF72  F00F         	goto	l3121
  1843   001ED4                     u1540:
  1844   001ED4  5009               	movf	___lmul@multiplicand^0,w,c
  1845   001ED6  260D               	addwf	___lmul@product^0,f,c
  1846   001ED8  500A               	movf	(___lmul@multiplicand+1)^0,w,c
  1847   001EDA  220E               	addwfc	(___lmul@product+1)^0,f,c
  1848   001EDC  500B               	movf	(___lmul@multiplicand+2)^0,w,c
  1849   001EDE  220F               	addwfc	(___lmul@product+2)^0,f,c
  1850   001EE0  500C               	movf	(___lmul@multiplicand+3)^0,w,c
  1851   001EE2  2210               	addwfc	(___lmul@product+3)^0,f,c
  1852   001EE4                     l3121:
  1853   001EE4  90D8               	bcf	status,0,c
  1854   001EE6  3609               	rlcf	___lmul@multiplicand^0,f,c
  1855   001EE8  360A               	rlcf	(___lmul@multiplicand+1)^0,f,c
  1856   001EEA  360B               	rlcf	(___lmul@multiplicand+2)^0,f,c
  1857   001EEC  360C               	rlcf	(___lmul@multiplicand+3)^0,f,c
  1858   001EEE  90D8               	bcf	status,0,c
  1859   001EF0  3208               	rrcf	(___lmul@multiplier+3)^0,f,c
  1860   001EF2  3207               	rrcf	(___lmul@multiplier+2)^0,f,c
  1861   001EF4  3206               	rrcf	(___lmul@multiplier+1)^0,f,c
  1862   001EF6  3205               	rrcf	___lmul@multiplier^0,f,c
  1863   001EF8  5005               	movf	___lmul@multiplier^0,w,c
  1864   001EFA  1006               	iorwf	(___lmul@multiplier+1)^0,w,c
  1865   001EFC  1007               	iorwf	(___lmul@multiplier+2)^0,w,c
  1866   001EFE  1008               	iorwf	(___lmul@multiplier+3)^0,w,c
  1867   001F00  A4D8               	btfss	status,2,c
  1868   001F02  EF85  F00F         	goto	u1551
  1869   001F06  EF87  F00F         	goto	u1550
  1870   001F0A                     u1551:
  1871   001F0A  EF63  F00F         	goto	l3117
  1872   001F0E                     u1550:
  1873   001F0E  C00D  F005         	movff	___lmul@product,?___lmul
  1874   001F12  C00E  F006         	movff	___lmul@product+1,?___lmul+1
  1875   001F16  C00F  F007         	movff	___lmul@product+2,?___lmul+2
  1876   001F1A  C010  F008         	movff	___lmul@product+3,?___lmul+3
  1877   001F1E  0012               	return		;funcret
  1878   001F20                     __end_of___lmul:
  1879                           	callstack 0
  1880                           
  1881 ;; *************** function _SYSTEM_Initialize *****************
  1882 ;; Defined at:
  1883 ;;		line 50 in file "mcc_generated_files/mcc.c"
  1884 ;; Parameters:    Size  Location     Type
  1885 ;;		None
  1886 ;; Auto vars:     Size  Location     Type
  1887 ;;		None
  1888 ;; Return value:  Size  Location     Type
  1889 ;;                  1    wreg      void 
  1890 ;; Registers used:
  1891 ;;		wreg, status,2, status,0, cstack
  1892 ;; Tracked objects:
  1893 ;;		On entry : 0/0
  1894 ;;		On exit  : 0/0
  1895 ;;		Unchanged: 0/0
  1896 ;; Data sizes:     COMRAM   BANK0   BANK1   BANK2   BANK3   BANK4   BANK5   BANK6   BANK7   BANK8   BANK9  BANK10  BANK1
      +1  BANK12  BANK13  BANK14
  1897 ;;      Params:         0       0       0       0       0       0       0       0       0       0       0       0       
      +0       0       0       0
  1898 ;;      Locals:         0       0       0       0       0       0       0       0       0       0       0       0       
      +0       0       0       0
  1899 ;;      Temps:          0       0       0       0       0       0       0       0       0       0       0       0       
      +0       0       0       0
  1900 ;;      Totals:         0       0       0       0       0       0       0       0       0       0       0       0       
      +0       0       0       0
  1901 ;;Total ram usage:        0 bytes
  1902 ;; Hardware stack levels used: 1
  1903 ;; Hardware stack levels required when called: 6
  1904 ;; This function calls:
  1905 ;;		_ADC_Initialize
  1906 ;;		_ECAN_Initialize
  1907 ;;		_EUSART1_Initialize
  1908 ;;		_INTERRUPT_Initialize
  1909 ;;		_OSCILLATOR_Initialize
  1910 ;;		_PIN_MANAGER_Initialize
  1911 ;;		_TMR1_Initialize
  1912 ;; This function is called by:
  1913 ;;		_main
  1914 ;; This function uses a non-reentrant model
  1915 ;;
  1916                           
  1917                           	psect	text8
  1918   00213A                     __ptext8:
  1919                           	callstack 0
  1920   00213A                     _SYSTEM_Initialize:
  1921                           	callstack 24
  1922   00213A                     
  1923                           ;mcc_generated_files/mcc.c: 53:     INTERRUPT_Initialize();
  1924   00213A  ECFB  F010         	call	_INTERRUPT_Initialize	;wreg free
  1925   00213E                     
  1926                           ;mcc_generated_files/mcc.c: 54:     PIN_MANAGER_Initialize();
  1927   00213E  EC61  F010         	call	_PIN_MANAGER_Initialize	;wreg free
  1928   002142                     
  1929                           ;mcc_generated_files/mcc.c: 55:     OSCILLATOR_Initialize();
  1930   002142  ECD1  F010         	call	_OSCILLATOR_Initialize	;wreg free
  1931   002146                     
  1932                           ;mcc_generated_files/mcc.c: 56:     TMR1_Initialize();
  1933   002146  EC12  F010         	call	_TMR1_Initialize	;wreg free
  1934   00214A                     
  1935                           ;mcc_generated_files/mcc.c: 57:     ADC_Initialize();
  1936   00214A  ECC6  F010         	call	_ADC_Initialize	;wreg free
  1937   00214E                     
  1938                           ;mcc_generated_files/mcc.c: 58:     EUSART1_Initialize();
  1939   00214E  ECD6  F00F         	call	_EUSART1_Initialize	;wreg free
  1940   002152                     
  1941                           ;mcc_generated_files/mcc.c: 59:     ECAN_Initialize();
  1942   002152  EC27  F00E         	call	_ECAN_Initialize	;wreg free
  1943   002156  0012               	return		;funcret
  1944   002158                     __end_of_SYSTEM_Initialize:
  1945                           	callstack 0
  1946                           
  1947 ;; *************** function _TMR1_Initialize *****************
  1948 ;; Defined at:
  1949 ;;		line 64 in file "mcc_generated_files/tmr1.c"
  1950 ;; Parameters:    Size  Location     Type
  1951 ;;		None
  1952 ;; Auto vars:     Size  Location     Type
  1953 ;;		None
  1954 ;; Return value:  Size  Location     Type
  1955 ;;                  1    wreg      void 
  1956 ;; Registers used:
  1957 ;;		wreg, status,2, status,0, cstack
  1958 ;; Tracked objects:
  1959 ;;		On entry : 0/0
  1960 ;;		On exit  : 0/0
  1961 ;;		Unchanged: 0/0
  1962 ;; Data sizes:     COMRAM   BANK0   BANK1   BANK2   BANK3   BANK4   BANK5   BANK6   BANK7   BANK8   BANK9  BANK10  BANK1
      +1  BANK12  BANK13  BANK14
  1963 ;;      Params:         0       0       0       0       0       0       0       0       0       0       0       0       
      +0       0       0       0
  1964 ;;      Locals:         0       0       0       0       0       0       0       0       0       0       0       0       
      +0       0       0       0
  1965 ;;      Temps:          2       0       0       0       0       0       0       0       0       0       0       0       
      +0       0       0       0
  1966 ;;      Totals:         2       0       0       0       0       0       0       0       0       0       0       0       
      +0       0       0       0
  1967 ;;Total ram usage:        2 bytes
  1968 ;; Hardware stack levels used: 1
  1969 ;; Hardware stack levels required when called: 5
  1970 ;; This function calls:
  1971 ;;		_TMR1_SetInterruptHandler
  1972 ;; This function is called by:
  1973 ;;		_SYSTEM_Initialize
  1974 ;; This function uses a non-reentrant model
  1975 ;;
  1976                           
  1977                           	psect	text9
  1978   002024                     __ptext9:
  1979                           	callstack 0
  1980   002024                     _TMR1_Initialize:
  1981                           	callstack 24
  1982   002024                     
  1983                           ;mcc_generated_files/tmr1.c: 69:     T1GCON = 0x00;
  1984   002024  0E00               	movlw	0
  1985   002026  6EAA               	movwf	170,c	;volatile
  1986                           
  1987                           ;mcc_generated_files/tmr1.c: 72:     TMR1H = 0x0B;
  1988   002028  0E0B               	movlw	11
  1989   00202A  6ECF               	movwf	207,c	;volatile
  1990                           
  1991                           ;mcc_generated_files/tmr1.c: 75:     TMR1L = 0xDC;
  1992   00202C  0EDC               	movlw	220
  1993   00202E  6ECE               	movwf	206,c	;volatile
  1994   002030                     
  1995                           ;mcc_generated_files/tmr1.c: 78:     PIR1bits.TMR1IF = 0;
  1996   002030  909E               	bcf	158,0,c	;volatile
  1997   002032                     
  1998                           ;mcc_generated_files/tmr1.c: 81:     timer1ReloadVal=(uint16_t)((TMR1H << 8) | TMR1L);
  1999   002032  50CE               	movf	206,w,c	;volatile
  2000   002034  CFCF F007          	movff	4047,??_TMR1_Initialize	;volatile
  2001   002038  6A08               	clrf	(??_TMR1_Initialize+1)^0,c
  2002   00203A  C007  F008         	movff	??_TMR1_Initialize,??_TMR1_Initialize+1
  2003   00203E  6A07               	clrf	??_TMR1_Initialize^0,c
  2004   002040  1007               	iorwf	??_TMR1_Initialize^0,w,c
  2005   002042  6E39               	movwf	_timer1ReloadVal^0,c	;volatile
  2006   002044  5008               	movf	(??_TMR1_Initialize+1)^0,w,c
  2007   002046  6E3A               	movwf	(_timer1ReloadVal+1)^0,c	;volatile
  2008   002048                     
  2009                           ;mcc_generated_files/tmr1.c: 84:     PIE1bits.TMR1IE = 1;
  2010   002048  809D               	bsf	157,0,c	;volatile
  2011   00204A                     
  2012                           ;mcc_generated_files/tmr1.c: 87:     TMR1_SetInterruptHandler(TMR1_DefaultInterruptHandl
      +                          er);
  2013   00204A  0EFC               	movlw	low _TMR1_DefaultInterruptHandler
  2014   00204C  6E05               	movwf	TMR1_SetInterruptHandler@InterruptHandler^0,c
  2015   00204E  0E21               	movlw	high _TMR1_DefaultInterruptHandler
  2016   002050  6E06               	movwf	(TMR1_SetInterruptHandler@InterruptHandler+1)^0,c
  2017   002052  ECDF  F010         	call	_TMR1_SetInterruptHandler	;wreg free
  2018   002056                     
  2019                           ;mcc_generated_files/tmr1.c: 90:     T1CON = 0x31;
  2020   002056  0E31               	movlw	49
  2021   002058  6ECD               	movwf	205,c	;volatile
  2022   00205A  0012               	return		;funcret
  2023   00205C                     __end_of_TMR1_Initialize:
  2024                           	callstack 0
  2025                           
  2026 ;; *************** function _TMR1_SetInterruptHandler *****************
  2027 ;; Defined at:
  2028 ;;		line 185 in file "mcc_generated_files/tmr1.c"
  2029 ;; Parameters:    Size  Location     Type
  2030 ;;  InterruptHan    2    4[COMRAM] PTR FTN()void 
  2031 ;;		 -> timer_1s(1), TMR1_DefaultInterruptHandler(1), 
  2032 ;; Auto vars:     Size  Location     Type
  2033 ;;		None
  2034 ;; Return value:  Size  Location     Type
  2035 ;;                  1    wreg      void 
  2036 ;; Registers used:
  2037 ;;		wreg, status,2, status,0
  2038 ;; Tracked objects:
  2039 ;;		On entry : 0/0
  2040 ;;		On exit  : 0/0
  2041 ;;		Unchanged: 0/0
  2042 ;; Data sizes:     COMRAM   BANK0   BANK1   BANK2   BANK3   BANK4   BANK5   BANK6   BANK7   BANK8   BANK9  BANK10  BANK1
      +1  BANK12  BANK13  BANK14
  2043 ;;      Params:         2       0       0       0       0       0       0       0       0       0       0       0       
      +0       0       0       0
  2044 ;;      Locals:         0       0       0       0       0       0       0       0       0       0       0       0       
      +0       0       0       0
  2045 ;;      Temps:          0       0       0       0       0       0       0       0       0       0       0       0       
      +0       0       0       0
  2046 ;;      Totals:         2       0       0       0       0       0       0       0       0       0       0       0       
      +0       0       0       0
  2047 ;;Total ram usage:        2 bytes
  2048 ;; Hardware stack levels used: 1
  2049 ;; Hardware stack levels required when called: 4
  2050 ;; This function calls:
  2051 ;;		Nothing
  2052 ;; This function is called by:
  2053 ;;		_TMR1_Initialize
  2054 ;;		_main
  2055 ;; This function uses a non-reentrant model
  2056 ;;
  2057                           
  2058                           	psect	text10
  2059   0021BE                     __ptext10:
  2060                           	callstack 0
  2061   0021BE                     _TMR1_SetInterruptHandler:
  2062                           	callstack 26
  2063   0021BE                     
  2064                           ;mcc_generated_files/tmr1.c: 186:     TMR1_InterruptHandler = InterruptHandler;
  2065   0021BE  C005  F0AB         	movff	TMR1_SetInterruptHandler@InterruptHandler,_TMR1_InterruptHandler
  2066   0021C2  C006  F0AC         	movff	TMR1_SetInterruptHandler@InterruptHandler+1,_TMR1_InterruptHandler+1
  2067   0021C6  0012               	return		;funcret
  2068   0021C8                     __end_of_TMR1_SetInterruptHandler:
  2069                           	callstack 0
  2070                           
  2071 ;; *************** function _PIN_MANAGER_Initialize *****************
  2072 ;; Defined at:
  2073 ;;		line 55 in file "mcc_generated_files/pin_manager.c"
  2074 ;; Parameters:    Size  Location     Type
  2075 ;;		None
  2076 ;; Auto vars:     Size  Location     Type
  2077 ;;		None
  2078 ;; Return value:  Size  Location     Type
  2079 ;;                  1    wreg      void 
  2080 ;; Registers used:
  2081 ;;		wreg, status,2
  2082 ;; Tracked objects:
  2083 ;;		On entry : 0/0
  2084 ;;		On exit  : 0/0
  2085 ;;		Unchanged: 0/0
  2086 ;; Data sizes:     COMRAM   BANK0   BANK1   BANK2   BANK3   BANK4   BANK5   BANK6   BANK7   BANK8   BANK9  BANK10  BANK1
      +1  BANK12  BANK13  BANK14
  2087 ;;      Params:         0       0       0       0       0       0       0       0       0       0       0       0       
      +0       0       0       0
  2088 ;;      Locals:         0       0       0       0       0       0       0       0       0       0       0       0       
      +0       0       0       0
  2089 ;;      Temps:          0       0       0       0       0       0       0       0       0       0       0       0       
      +0       0       0       0
  2090 ;;      Totals:         0       0       0       0       0       0       0       0       0       0       0       0       
      +0       0       0       0
  2091 ;;Total ram usage:        0 bytes
  2092 ;; Hardware stack levels used: 1
  2093 ;; Hardware stack levels required when called: 4
  2094 ;; This function calls:
  2095 ;;		Nothing
  2096 ;; This function is called by:
  2097 ;;		_SYSTEM_Initialize
  2098 ;; This function uses a non-reentrant model
  2099 ;;
  2100                           
  2101                           	psect	text11
  2102   0020C2                     __ptext11:
  2103                           	callstack 0
  2104   0020C2                     _PIN_MANAGER_Initialize:
  2105                           	callstack 25
  2106   0020C2                     
  2107                           ;mcc_generated_files/pin_manager.c: 60:     LATA = 0x00;
  2108   0020C2  0E00               	movlw	0
  2109   0020C4  6E89               	movwf	137,c	;volatile
  2110                           
  2111                           ;mcc_generated_files/pin_manager.c: 61:     LATB = 0x00;
  2112   0020C6  0E00               	movlw	0
  2113   0020C8  6E8A               	movwf	138,c	;volatile
  2114                           
  2115                           ;mcc_generated_files/pin_manager.c: 62:     LATC = 0x00;
  2116   0020CA  0E00               	movlw	0
  2117   0020CC  6E8B               	movwf	139,c	;volatile
  2118                           
  2119                           ;mcc_generated_files/pin_manager.c: 67:     TRISA = 0xCF;
  2120   0020CE  0ECF               	movlw	207
  2121   0020D0  6E92               	movwf	146,c	;volatile
  2122                           
  2123                           ;mcc_generated_files/pin_manager.c: 68:     TRISB = 0xFB;
  2124   0020D2  0EFB               	movlw	251
  2125   0020D4  6E93               	movwf	147,c	;volatile
  2126                           
  2127                           ;mcc_generated_files/pin_manager.c: 69:     TRISC = 0xB3;
  2128   0020D6  0EB3               	movlw	179
  2129   0020D8  6E94               	movwf	148,c	;volatile
  2130                           
  2131                           ;mcc_generated_files/pin_manager.c: 74:     ANCON0 = 0x1E;
  2132   0020DA  0E1E               	movlw	30
  2133   0020DC  010F               	movlb	15	; () banked
  2134   0020DE  6F5D               	movwf	93,b	;volatile
  2135                           
  2136                           ;mcc_generated_files/pin_manager.c: 75:     ANCON1 = 0x07;
  2137   0020E0  0E07               	movlw	7
  2138   0020E2  6F5C               	movwf	92,b	;volatile
  2139                           
  2140                           ;mcc_generated_files/pin_manager.c: 80:     WPUB = 0x00;
  2141   0020E4  0E00               	movlw	0
  2142   0020E6  6F5B               	movwf	91,b	;volatile
  2143   0020E8                     
  2144                           ; BSR set to: 15
  2145                           ;mcc_generated_files/pin_manager.c: 81:     INTCON2bits.nRBPU = 1;
  2146   0020E8  8EF1               	bsf	241,7,c	;volatile
  2147   0020EA                     
  2148                           ; BSR set to: 15
  2149   0020EA  0012               	return		;funcret
  2150   0020EC                     __end_of_PIN_MANAGER_Initialize:
  2151                           	callstack 0
  2152                           
  2153 ;; *************** function _OSCILLATOR_Initialize *****************
  2154 ;; Defined at:
  2155 ;;		line 62 in file "mcc_generated_files/mcc.c"
  2156 ;; Parameters:    Size  Location     Type
  2157 ;;		None
  2158 ;; Auto vars:     Size  Location     Type
  2159 ;;		None
  2160 ;; Return value:  Size  Location     Type
  2161 ;;                  1    wreg      void 
  2162 ;; Registers used:
  2163 ;;		wreg, status,2
  2164 ;; Tracked objects:
  2165 ;;		On entry : 0/0
  2166 ;;		On exit  : 0/0
  2167 ;;		Unchanged: 0/0
  2168 ;; Data sizes:     COMRAM   BANK0   BANK1   BANK2   BANK3   BANK4   BANK5   BANK6   BANK7   BANK8   BANK9  BANK10  BANK1
      +1  BANK12  BANK13  BANK14
  2169 ;;      Params:         0       0       0       0       0       0       0       0       0       0       0       0       
      +0       0       0       0
  2170 ;;      Locals:         0       0       0       0       0       0       0       0       0       0       0       0       
      +0       0       0       0
  2171 ;;      Temps:          0       0       0       0       0       0       0       0       0       0       0       0       
      +0       0       0       0
  2172 ;;      Totals:         0       0       0       0       0       0       0       0       0       0       0       0       
      +0       0       0       0
  2173 ;;Total ram usage:        0 bytes
  2174 ;; Hardware stack levels used: 1
  2175 ;; Hardware stack levels required when called: 4
  2176 ;; This function calls:
  2177 ;;		Nothing
  2178 ;; This function is called by:
  2179 ;;		_SYSTEM_Initialize
  2180 ;; This function uses a non-reentrant model
  2181 ;;
  2182                           
  2183                           	psect	text12
  2184   0021A2                     __ptext12:
  2185                           	callstack 0
  2186   0021A2                     _OSCILLATOR_Initialize:
  2187                           	callstack 25
  2188   0021A2                     
  2189                           ;mcc_generated_files/mcc.c: 65:     OSCCON = 0x60;
  2190   0021A2  0E60               	movlw	96
  2191   0021A4  6ED3               	movwf	211,c	;volatile
  2192                           
  2193                           ;mcc_generated_files/mcc.c: 67:     OSCCON2 = 0x00;
  2194   0021A6  0E00               	movlw	0
  2195   0021A8  6ED2               	movwf	210,c	;volatile
  2196                           
  2197                           ;mcc_generated_files/mcc.c: 69:     OSCTUNE = 0x00;
  2198   0021AA  0E00               	movlw	0
  2199   0021AC  6E9B               	movwf	155,c	;volatile
  2200                           
  2201                           ;mcc_generated_files/mcc.c: 71:     REFOCON = 0x00;
  2202   0021AE  0E00               	movlw	0
  2203   0021B0  6E9A               	movwf	154,c	;volatile
  2204   0021B2  0012               	return		;funcret
  2205   0021B4                     __end_of_OSCILLATOR_Initialize:
  2206                           	callstack 0
  2207                           
  2208 ;; *************** function _INTERRUPT_Initialize *****************
  2209 ;; Defined at:
  2210 ;;		line 52 in file "mcc_generated_files/interrupt_manager.c"
  2211 ;; Parameters:    Size  Location     Type
  2212 ;;		None
  2213 ;; Auto vars:     Size  Location     Type
  2214 ;;		None
  2215 ;; Return value:  Size  Location     Type
  2216 ;;                  1    wreg      void 
  2217 ;; Registers used:
  2218 ;;		None
  2219 ;; Tracked objects:
  2220 ;;		On entry : 0/0
  2221 ;;		On exit  : 0/0
  2222 ;;		Unchanged: 0/0
  2223 ;; Data sizes:     COMRAM   BANK0   BANK1   BANK2   BANK3   BANK4   BANK5   BANK6   BANK7   BANK8   BANK9  BANK10  BANK1
      +1  BANK12  BANK13  BANK14
  2224 ;;      Params:         0       0       0       0       0       0       0       0       0       0       0       0       
      +0       0       0       0
  2225 ;;      Locals:         0       0       0       0       0       0       0       0       0       0       0       0       
      +0       0       0       0
  2226 ;;      Temps:          0       0       0       0       0       0       0       0       0       0       0       0       
      +0       0       0       0
  2227 ;;      Totals:         0       0       0       0       0       0       0       0       0       0       0       0       
      +0       0       0       0
  2228 ;;Total ram usage:        0 bytes
  2229 ;; Hardware stack levels used: 1
  2230 ;; Hardware stack levels required when called: 4
  2231 ;; This function calls:
  2232 ;;		Nothing
  2233 ;; This function is called by:
  2234 ;;		_SYSTEM_Initialize
  2235 ;; This function uses a non-reentrant model
  2236 ;;
  2237                           
  2238                           	psect	text13
  2239   0021F6                     __ptext13:
  2240                           	callstack 0
  2241   0021F6                     _INTERRUPT_Initialize:
  2242                           	callstack 25
  2243   0021F6                     
  2244                           ;mcc_generated_files/interrupt_manager.c: 55:     RCONbits.IPEN = 0;
  2245   0021F6  9ED0               	bcf	208,7,c	;volatile
  2246   0021F8  0012               	return		;funcret
  2247   0021FA                     __end_of_INTERRUPT_Initialize:
  2248                           	callstack 0
  2249                           
  2250 ;; *************** function _EUSART1_Initialize *****************
  2251 ;; Defined at:
  2252 ;;		line 66 in file "mcc_generated_files/eusart1.c"
  2253 ;; Parameters:    Size  Location     Type
  2254 ;;		None
  2255 ;; Auto vars:     Size  Location     Type
  2256 ;;		None
  2257 ;; Return value:  Size  Location     Type
  2258 ;;                  1    wreg      void 
  2259 ;; Registers used:
  2260 ;;		wreg, status,2, status,0, cstack
  2261 ;; Tracked objects:
  2262 ;;		On entry : 0/0
  2263 ;;		On exit  : 0/0
  2264 ;;		Unchanged: 0/0
  2265 ;; Data sizes:     COMRAM   BANK0   BANK1   BANK2   BANK3   BANK4   BANK5   BANK6   BANK7   BANK8   BANK9  BANK10  BANK1
      +1  BANK12  BANK13  BANK14
  2266 ;;      Params:         0       0       0       0       0       0       0       0       0       0       0       0       
      +0       0       0       0
  2267 ;;      Locals:         0       0       0       0       0       0       0       0       0       0       0       0       
      +0       0       0       0
  2268 ;;      Temps:          0       0       0       0       0       0       0       0       0       0       0       0       
      +0       0       0       0
  2269 ;;      Totals:         0       0       0       0       0       0       0       0       0       0       0       0       
      +0       0       0       0
  2270 ;;Total ram usage:        0 bytes
  2271 ;; Hardware stack levels used: 1
  2272 ;; Hardware stack levels required when called: 5
  2273 ;; This function calls:
  2274 ;;		_EUSART1_SetErrorHandler
  2275 ;;		_EUSART1_SetFramingErrorHandler
  2276 ;;		_EUSART1_SetOverrunErrorHandler
  2277 ;; This function is called by:
  2278 ;;		_SYSTEM_Initialize
  2279 ;; This function uses a non-reentrant model
  2280 ;;
  2281                           
  2282                           	psect	text14
  2283   001FAC                     __ptext14:
  2284                           	callstack 0
  2285   001FAC                     _EUSART1_Initialize:
  2286                           	callstack 24
  2287   001FAC                     
  2288                           ;mcc_generated_files/eusart1.c: 71:     BAUDCON1 = 0x08;
  2289   001FAC  0E08               	movlw	8
  2290   001FAE  6EA7               	movwf	167,c	;volatile
  2291                           
  2292                           ;mcc_generated_files/eusart1.c: 74:     RCSTA1 = 0x90;
  2293   001FB0  0E90               	movlw	144
  2294   001FB2  6EAB               	movwf	171,c	;volatile
  2295                           
  2296                           ;mcc_generated_files/eusart1.c: 77:     TXSTA1 = 0x24;
  2297   001FB4  0E24               	movlw	36
  2298   001FB6  6EAC               	movwf	172,c	;volatile
  2299                           
  2300                           ;mcc_generated_files/eusart1.c: 80:     SPBRG1 = 0x08;
  2301   001FB8  0E08               	movlw	8
  2302   001FBA  6EAF               	movwf	175,c	;volatile
  2303                           
  2304                           ;mcc_generated_files/eusart1.c: 83:     SPBRGH1 = 0x02;
  2305   001FBC  0E02               	movlw	2
  2306   001FBE  6E7D               	movwf	125,c	;volatile
  2307   001FC0                     
  2308                           ;mcc_generated_files/eusart1.c: 86:     EUSART1_SetFramingErrorHandler(EUSART1_DefaultFr
      +                          amingErrorHandler);
  2309   001FC0  0E00               	movlw	0
  2310   001FC2  6E05               	movwf	EUSART1_SetFramingErrorHandler@interruptHandler^0,c
  2311   001FC4  0E00               	movlw	0
  2312   001FC6  6E06               	movwf	(EUSART1_SetFramingErrorHandler@interruptHandler+1)^0,c
  2313   001FC8  ECE9  F010         	call	_EUSART1_SetFramingErrorHandler	;wreg free
  2314   001FCC                     
  2315                           ;mcc_generated_files/eusart1.c: 87:     EUSART1_SetOverrunErrorHandler(EUSART1_DefaultOv
      +                          errunErrorHandler);
  2316   001FCC  0E00               	movlw	0
  2317   001FCE  6E05               	movwf	EUSART1_SetOverrunErrorHandler@interruptHandler^0,c
  2318   001FD0  0E00               	movlw	0
  2319   001FD2  6E06               	movwf	(EUSART1_SetOverrunErrorHandler@interruptHandler+1)^0,c
  2320   001FD4  ECE4  F010         	call	_EUSART1_SetOverrunErrorHandler	;wreg free
  2321   001FD8                     
  2322                           ;mcc_generated_files/eusart1.c: 88:     EUSART1_SetErrorHandler(EUSART1_DefaultErrorHand
      +                          ler);
  2323   001FD8  0E00               	movlw	0
  2324   001FDA  6E05               	movwf	EUSART1_SetErrorHandler@interruptHandler^0,c
  2325   001FDC  0E00               	movlw	0
  2326   001FDE  6E06               	movwf	(EUSART1_SetErrorHandler@interruptHandler+1)^0,c
  2327   001FE0  ECEE  F010         	call	_EUSART1_SetErrorHandler	;wreg free
  2328   001FE4                     
  2329                           ;mcc_generated_files/eusart1.c: 90:     eusart1RxLastError.status = 0;
  2330   001FE4  0E00               	movlw	0
  2331   001FE6  6E38               	movwf	_eusart1RxLastError^0,c	;volatile
  2332   001FE8  0012               	return		;funcret
  2333   001FEA                     __end_of_EUSART1_Initialize:
  2334                           	callstack 0
  2335                           
  2336 ;; *************** function _EUSART1_SetOverrunErrorHandler *****************
  2337 ;; Defined at:
  2338 ;;		line 170 in file "mcc_generated_files/eusart1.c"
  2339 ;; Parameters:    Size  Location     Type
  2340 ;;  interruptHan    2    4[COMRAM] PTR FTN()void 
  2341 ;;		 -> EUSART1_DefaultOverrunErrorHandler(1), 
  2342 ;; Auto vars:     Size  Location     Type
  2343 ;;		None
  2344 ;; Return value:  Size  Location     Type
  2345 ;;                  1    wreg      void 
  2346 ;; Registers used:
  2347 ;;		wreg, status,2, status,0
  2348 ;; Tracked objects:
  2349 ;;		On entry : 0/0
  2350 ;;		On exit  : 0/0
  2351 ;;		Unchanged: 0/0
  2352 ;; Data sizes:     COMRAM   BANK0   BANK1   BANK2   BANK3   BANK4   BANK5   BANK6   BANK7   BANK8   BANK9  BANK10  BANK1
      +1  BANK12  BANK13  BANK14
  2353 ;;      Params:         2       0       0       0       0       0       0       0       0       0       0       0       
      +0       0       0       0
  2354 ;;      Locals:         0       0       0       0       0       0       0       0       0       0       0       0       
      +0       0       0       0
  2355 ;;      Temps:          0       0       0       0       0       0       0       0       0       0       0       0       
      +0       0       0       0
  2356 ;;      Totals:         2       0       0       0       0       0       0       0       0       0       0       0       
      +0       0       0       0
  2357 ;;Total ram usage:        2 bytes
  2358 ;; Hardware stack levels used: 1
  2359 ;; Hardware stack levels required when called: 4
  2360 ;; This function calls:
  2361 ;;		Nothing
  2362 ;; This function is called by:
  2363 ;;		_EUSART1_Initialize
  2364 ;; This function uses a non-reentrant model
  2365 ;;
  2366                           
  2367                           	psect	text15
  2368   0021C8                     __ptext15:
  2369                           	callstack 0
  2370   0021C8                     _EUSART1_SetOverrunErrorHandler:
  2371                           	callstack 24
  2372   0021C8                     
  2373                           ;mcc_generated_files/eusart1.c: 171:     EUSART1_OverrunErrorHandler = interruptHandler;
  2374   0021C8  C005  F0A7         	movff	EUSART1_SetOverrunErrorHandler@interruptHandler,_EUSART1_OverrunErrorHandler
  2375   0021CC  C006  F0A8         	movff	EUSART1_SetOverrunErrorHandler@interruptHandler+1,_EUSART1_OverrunErrorHandler+1
  2376   0021D0  0012               	return		;funcret
  2377   0021D2                     __end_of_EUSART1_SetOverrunErrorHandler:
  2378                           	callstack 0
  2379                           
  2380 ;; *************** function _EUSART1_SetFramingErrorHandler *****************
  2381 ;; Defined at:
  2382 ;;		line 166 in file "mcc_generated_files/eusart1.c"
  2383 ;; Parameters:    Size  Location     Type
  2384 ;;  interruptHan    2    4[COMRAM] PTR FTN()void 
  2385 ;;		 -> EUSART1_DefaultFramingErrorHandler(1), 
  2386 ;; Auto vars:     Size  Location     Type
  2387 ;;		None
  2388 ;; Return value:  Size  Location     Type
  2389 ;;                  1    wreg      void 
  2390 ;; Registers used:
  2391 ;;		wreg, status,2, status,0
  2392 ;; Tracked objects:
  2393 ;;		On entry : 0/0
  2394 ;;		On exit  : 0/0
  2395 ;;		Unchanged: 0/0
  2396 ;; Data sizes:     COMRAM   BANK0   BANK1   BANK2   BANK3   BANK4   BANK5   BANK6   BANK7   BANK8   BANK9  BANK10  BANK1
      +1  BANK12  BANK13  BANK14
  2397 ;;      Params:         2       0       0       0       0       0       0       0       0       0       0       0       
      +0       0       0       0
  2398 ;;      Locals:         0       0       0       0       0       0       0       0       0       0       0       0       
      +0       0       0       0
  2399 ;;      Temps:          0       0       0       0       0       0       0       0       0       0       0       0       
      +0       0       0       0
  2400 ;;      Totals:         2       0       0       0       0       0       0       0       0       0       0       0       
      +0       0       0       0
  2401 ;;Total ram usage:        2 bytes
  2402 ;; Hardware stack levels used: 1
  2403 ;; Hardware stack levels required when called: 4
  2404 ;; This function calls:
  2405 ;;		Nothing
  2406 ;; This function is called by:
  2407 ;;		_EUSART1_Initialize
  2408 ;; This function uses a non-reentrant model
  2409 ;;
  2410                           
  2411                           	psect	text16
  2412   0021D2                     __ptext16:
  2413                           	callstack 0
  2414   0021D2                     _EUSART1_SetFramingErrorHandler:
  2415                           	callstack 24
  2416   0021D2                     
  2417                           ;mcc_generated_files/eusart1.c: 167:     EUSART1_FramingErrorHandler = interruptHandler;
  2418   0021D2  C005  F0A9         	movff	EUSART1_SetFramingErrorHandler@interruptHandler,_EUSART1_FramingErrorHandler
  2419   0021D6  C006  F0AA         	movff	EUSART1_SetFramingErrorHandler@interruptHandler+1,_EUSART1_FramingErrorHandler+1
  2420   0021DA  0012               	return		;funcret
  2421   0021DC                     __end_of_EUSART1_SetFramingErrorHandler:
  2422                           	callstack 0
  2423                           
  2424 ;; *************** function _EUSART1_SetErrorHandler *****************
  2425 ;; Defined at:
  2426 ;;		line 174 in file "mcc_generated_files/eusart1.c"
  2427 ;; Parameters:    Size  Location     Type
  2428 ;;  interruptHan    2    4[COMRAM] PTR FTN()void 
  2429 ;;		 -> EUSART1_DefaultErrorHandler(1), 
  2430 ;; Auto vars:     Size  Location     Type
  2431 ;;		None
  2432 ;; Return value:  Size  Location     Type
  2433 ;;                  1    wreg      void 
  2434 ;; Registers used:
  2435 ;;		wreg, status,2, status,0
  2436 ;; Tracked objects:
  2437 ;;		On entry : 0/0
  2438 ;;		On exit  : 0/0
  2439 ;;		Unchanged: 0/0
  2440 ;; Data sizes:     COMRAM   BANK0   BANK1   BANK2   BANK3   BANK4   BANK5   BANK6   BANK7   BANK8   BANK9  BANK10  BANK1
      +1  BANK12  BANK13  BANK14
  2441 ;;      Params:         2       0       0       0       0       0       0       0       0       0       0       0       
      +0       0       0       0
  2442 ;;      Locals:         0       0       0       0       0       0       0       0       0       0       0       0       
      +0       0       0       0
  2443 ;;      Temps:          0       0       0       0       0       0       0       0       0       0       0       0       
      +0       0       0       0
  2444 ;;      Totals:         2       0       0       0       0       0       0       0       0       0       0       0       
      +0       0       0       0
  2445 ;;Total ram usage:        2 bytes
  2446 ;; Hardware stack levels used: 1
  2447 ;; Hardware stack levels required when called: 4
  2448 ;; This function calls:
  2449 ;;		Nothing
  2450 ;; This function is called by:
  2451 ;;		_EUSART1_Initialize
  2452 ;; This function uses a non-reentrant model
  2453 ;;
  2454                           
  2455                           	psect	text17
  2456   0021DC                     __ptext17:
  2457                           	callstack 0
  2458   0021DC                     _EUSART1_SetErrorHandler:
  2459                           	callstack 24
  2460   0021DC                     
  2461                           ;mcc_generated_files/eusart1.c: 175:     EUSART1_ErrorHandler = interruptHandler;
  2462   0021DC  C005  F0A5         	movff	EUSART1_SetErrorHandler@interruptHandler,_EUSART1_ErrorHandler
  2463   0021E0  C006  F0A6         	movff	EUSART1_SetErrorHandler@interruptHandler+1,_EUSART1_ErrorHandler+1
  2464   0021E4  0012               	return		;funcret
  2465   0021E6                     __end_of_EUSART1_SetErrorHandler:
  2466                           	callstack 0
  2467                           
  2468 ;; *************** function _ECAN_Initialize *****************
  2469 ;; Defined at:
  2470 ;;		line 65 in file "mcc_generated_files/ecan.c"
  2471 ;; Parameters:    Size  Location     Type
  2472 ;;		None
  2473 ;; Auto vars:     Size  Location     Type
  2474 ;;		None
  2475 ;; Return value:  Size  Location     Type
  2476 ;;                  1    wreg      void 
  2477 ;; Registers used:
  2478 ;;		wreg, status,2, status,0, cstack
  2479 ;; Tracked objects:
  2480 ;;		On entry : 0/0
  2481 ;;		On exit  : 0/0
  2482 ;;		Unchanged: 0/0
  2483 ;; Data sizes:     COMRAM   BANK0   BANK1   BANK2   BANK3   BANK4   BANK5   BANK6   BANK7   BANK8   BANK9  BANK10  BANK1
      +1  BANK12  BANK13  BANK14
  2484 ;;      Params:         0       0       0       0       0       0       0       0       0       0       0       0       
      +0       0       0       0
  2485 ;;      Locals:         0       0       0       0       0       0       0       0       0       0       0       0       
      +0       0       0       0
  2486 ;;      Temps:          1       0       0       0       0       0       0       0       0       0       0       0       
      +0       0       0       0
  2487 ;;      Totals:         1       0       0       0       0       0       0       0       0       0       0       0       
      +0       0       0       0
  2488 ;;Total ram usage:        1 bytes
  2489 ;; Hardware stack levels used: 1
  2490 ;; Hardware stack levels required when called: 5
  2491 ;; This function calls:
  2492 ;;		_ECAN_SetWakeUpInterruptHandler
  2493 ;; This function is called by:
  2494 ;;		_SYSTEM_Initialize
  2495 ;; This function uses a non-reentrant model
  2496 ;;
  2497                           
  2498                           	psect	text18
  2499   001C4E                     __ptext18:
  2500                           	callstack 0
  2501   001C4E                     _ECAN_Initialize:
  2502                           	callstack 24
  2503   001C4E                     
  2504                           ;mcc_generated_files/ecan.c: 67:     CANCON = 0x80;
  2505   001C4E  0E80               	movlw	128
  2506   001C50  6E6F               	movwf	111,c	;volatile
  2507   001C52                     l2817:
  2508   001C52  506E               	movf	110,w,c	;volatile
  2509   001C54  0BE0               	andlw	224
  2510   001C56  0A80               	xorlw	128
  2511   001C58  A4D8               	btfss	status,2,c
  2512   001C5A  EF31  F00E         	goto	u1381
  2513   001C5E  EF33  F00E         	goto	u1380
  2514   001C62                     u1381:
  2515   001C62  EF29  F00E         	goto	l2817
  2516   001C66                     u1380:
  2517   001C66                     
  2518                           ;mcc_generated_files/ecan.c: 73:     ECANCON = 0x00;
  2519   001C66  0E00               	movlw	0
  2520   001C68  6E72               	movwf	114,c	;volatile
  2521                           
  2522                           ;mcc_generated_files/ecan.c: 78:     CIOCON = 0x20;
  2523   001C6A  0E20               	movlw	32
  2524   001C6C  6E70               	movwf	112,c	;volatile
  2525                           
  2526                           ;mcc_generated_files/ecan.c: 91:     RXM0EIDH = 0x00;
  2527   001C6E  0E00               	movlw	0
  2528   001C70  010E               	movlb	14	; () banked
  2529   001C72  6FFA               	movwf	250,b	;volatile
  2530                           
  2531                           ;mcc_generated_files/ecan.c: 92:     RXM0EIDL = 0x00;
  2532   001C74  0E00               	movlw	0
  2533   001C76  6FFB               	movwf	251,b	;volatile
  2534                           
  2535                           ;mcc_generated_files/ecan.c: 93:     RXM0SIDH = 0x00;
  2536   001C78  0E00               	movlw	0
  2537   001C7A  6FF8               	movwf	248,b	;volatile
  2538                           
  2539                           ;mcc_generated_files/ecan.c: 94:     RXM0SIDL = 0x00;
  2540   001C7C  0E00               	movlw	0
  2541   001C7E  6FF9               	movwf	249,b	;volatile
  2542                           
  2543                           ;mcc_generated_files/ecan.c: 95:     RXM1EIDH = 0x00;
  2544   001C80  0E00               	movlw	0
  2545   001C82  6FFE               	movwf	254,b	;volatile
  2546                           
  2547                           ;mcc_generated_files/ecan.c: 96:     RXM1EIDL = 0x00;
  2548   001C84  0E00               	movlw	0
  2549   001C86  6FFF               	movwf	255,b	;volatile
  2550                           
  2551                           ;mcc_generated_files/ecan.c: 97:     RXM1SIDH = 0x00;
  2552   001C88  0E00               	movlw	0
  2553   001C8A  6FFC               	movwf	252,b	;volatile
  2554                           
  2555                           ;mcc_generated_files/ecan.c: 98:     RXM1SIDL = 0x00;
  2556   001C8C  0E00               	movlw	0
  2557   001C8E  6FFD               	movwf	253,b	;volatile
  2558                           
  2559                           ;mcc_generated_files/ecan.c: 103:     RXF0EIDH = 0x00;
  2560   001C90  0E00               	movlw	0
  2561   001C92  6FE2               	movwf	226,b	;volatile
  2562                           
  2563                           ;mcc_generated_files/ecan.c: 104:     RXF0EIDL = 0x00;
  2564   001C94  0E00               	movlw	0
  2565   001C96  6FE3               	movwf	227,b	;volatile
  2566                           
  2567                           ;mcc_generated_files/ecan.c: 105:     RXF0SIDH = 0x00;
  2568   001C98  0E00               	movlw	0
  2569   001C9A  6FE0               	movwf	224,b	;volatile
  2570                           
  2571                           ;mcc_generated_files/ecan.c: 106:     RXF0SIDL = 0x00;
  2572   001C9C  0E00               	movlw	0
  2573   001C9E  6FE1               	movwf	225,b	;volatile
  2574                           
  2575                           ;mcc_generated_files/ecan.c: 107:     RXF1EIDH = 0x00;
  2576   001CA0  0E00               	movlw	0
  2577   001CA2  6FE6               	movwf	230,b	;volatile
  2578                           
  2579                           ;mcc_generated_files/ecan.c: 108:     RXF1EIDL = 0x00;
  2580   001CA4  0E00               	movlw	0
  2581   001CA6  6FE7               	movwf	231,b	;volatile
  2582                           
  2583                           ;mcc_generated_files/ecan.c: 109:     RXF1SIDH = 0x00;
  2584   001CA8  0E00               	movlw	0
  2585   001CAA  6FE4               	movwf	228,b	;volatile
  2586                           
  2587                           ;mcc_generated_files/ecan.c: 110:     RXF1SIDL = 0x00;
  2588   001CAC  0E00               	movlw	0
  2589   001CAE  6FE5               	movwf	229,b	;volatile
  2590                           
  2591                           ;mcc_generated_files/ecan.c: 111:     RXF2EIDH = 0x00;
  2592   001CB0  0E00               	movlw	0
  2593   001CB2  6FEA               	movwf	234,b	;volatile
  2594                           
  2595                           ;mcc_generated_files/ecan.c: 112:     RXF2EIDL = 0x00;
  2596   001CB4  0E00               	movlw	0
  2597   001CB6  6FEB               	movwf	235,b	;volatile
  2598                           
  2599                           ;mcc_generated_files/ecan.c: 113:     RXF2SIDH = 0x00;
  2600   001CB8  0E00               	movlw	0
  2601   001CBA  6FE8               	movwf	232,b	;volatile
  2602                           
  2603                           ;mcc_generated_files/ecan.c: 114:     RXF2SIDL = 0x00;
  2604   001CBC  0E00               	movlw	0
  2605   001CBE  6FE9               	movwf	233,b	;volatile
  2606                           
  2607                           ;mcc_generated_files/ecan.c: 115:     RXF3EIDH = 0x00;
  2608   001CC0  0E00               	movlw	0
  2609   001CC2  6FEE               	movwf	238,b	;volatile
  2610                           
  2611                           ;mcc_generated_files/ecan.c: 116:     RXF3EIDL = 0x00;
  2612   001CC4  0E00               	movlw	0
  2613   001CC6  6FEF               	movwf	239,b	;volatile
  2614                           
  2615                           ;mcc_generated_files/ecan.c: 117:     RXF3SIDH = 0x00;
  2616   001CC8  0E00               	movlw	0
  2617   001CCA  6FEC               	movwf	236,b	;volatile
  2618                           
  2619                           ;mcc_generated_files/ecan.c: 118:     RXF3SIDL = 0x00;
  2620   001CCC  0E00               	movlw	0
  2621   001CCE  6FED               	movwf	237,b	;volatile
  2622                           
  2623                           ;mcc_generated_files/ecan.c: 119:     RXF4EIDH = 0x00;
  2624   001CD0  0E00               	movlw	0
  2625   001CD2  6FF2               	movwf	242,b	;volatile
  2626                           
  2627                           ;mcc_generated_files/ecan.c: 120:     RXF4EIDL = 0x00;
  2628   001CD4  0E00               	movlw	0
  2629   001CD6  6FF3               	movwf	243,b	;volatile
  2630                           
  2631                           ;mcc_generated_files/ecan.c: 121:     RXF4SIDH = 0x00;
  2632   001CD8  0E00               	movlw	0
  2633   001CDA  6FF0               	movwf	240,b	;volatile
  2634                           
  2635                           ;mcc_generated_files/ecan.c: 122:     RXF4SIDL = 0x00;
  2636   001CDC  0E00               	movlw	0
  2637   001CDE  6FF1               	movwf	241,b	;volatile
  2638                           
  2639                           ;mcc_generated_files/ecan.c: 123:     RXF5EIDH = 0x00;
  2640   001CE0  0E00               	movlw	0
  2641   001CE2  6FF6               	movwf	246,b	;volatile
  2642                           
  2643                           ;mcc_generated_files/ecan.c: 124:     RXF5EIDL = 0x00;
  2644   001CE4  0E00               	movlw	0
  2645   001CE6  6FF7               	movwf	247,b	;volatile
  2646                           
  2647                           ;mcc_generated_files/ecan.c: 125:     RXF5SIDH = 0x00;
  2648   001CE8  0E00               	movlw	0
  2649   001CEA  6FF4               	movwf	244,b	;volatile
  2650                           
  2651                           ;mcc_generated_files/ecan.c: 126:     RXF5SIDL = 0x00;
  2652   001CEC  0E00               	movlw	0
  2653   001CEE  6FF5               	movwf	245,b	;volatile
  2654                           
  2655                           ;mcc_generated_files/ecan.c: 141:     BRGCON1 = 0x07;
  2656   001CF0  0E07               	movlw	7
  2657   001CF2  6F43               	movwf	67,b	;volatile
  2658                           
  2659                           ;mcc_generated_files/ecan.c: 142:     BRGCON2 = 0xA8;
  2660   001CF4  0EA8               	movlw	168
  2661   001CF6  6F44               	movwf	68,b	;volatile
  2662                           
  2663                           ;mcc_generated_files/ecan.c: 143:     BRGCON3 = 0x01;
  2664   001CF8  0E01               	movlw	1
  2665   001CFA  6F45               	movwf	69,b	;volatile
  2666   001CFC                     
  2667                           ; BSR set to: 14
  2668                           ;mcc_generated_files/ecan.c: 145:     ECAN_SetWakeUpInterruptHandler(WakeUpDefaultInterr
      +                          uptHandler);
  2669   001CFC  0EFE               	movlw	low _WakeUpDefaultInterruptHandler
  2670   001CFE  6E05               	movwf	ECAN_SetWakeUpInterruptHandler@handler^0,c
  2671   001D00  0E21               	movlw	high _WakeUpDefaultInterruptHandler
  2672   001D02  6E06               	movwf	(ECAN_SetWakeUpInterruptHandler@handler+1)^0,c
  2673   001D04  ECF3  F010         	call	_ECAN_SetWakeUpInterruptHandler	;wreg free
  2674   001D08                     
  2675                           ;mcc_generated_files/ecan.c: 146:     PIR5bits.WAKIF = 0;
  2676   001D08  9C77               	bcf	119,6,c	;volatile
  2677   001D0A                     
  2678                           ;mcc_generated_files/ecan.c: 147:     PIE5bits.WAKIE = 1;
  2679   001D0A  8C76               	bsf	118,6,c	;volatile
  2680   001D0C                     
  2681                           ;mcc_generated_files/ecan.c: 149:     CANCON = 0x00;
  2682   001D0C  0E00               	movlw	0
  2683   001D0E  6E6F               	movwf	111,c	;volatile
  2684   001D10                     l2829:
  2685   001D10  CF6E F007          	movff	3950,??_ECAN_Initialize	;volatile
  2686   001D14  0EE0               	movlw	224
  2687   001D16  1607               	andwf	??_ECAN_Initialize^0,f,c
  2688   001D18  A4D8               	btfss	status,2,c
  2689   001D1A  EF91  F00E         	goto	u1391
  2690   001D1E  EF93  F00E         	goto	u1390
  2691   001D22                     u1391:
  2692   001D22  EF88  F00E         	goto	l2829
  2693   001D26                     u1390:
  2694   001D26  0012               	return		;funcret
  2695   001D28                     __end_of_ECAN_Initialize:
  2696                           	callstack 0
  2697                           
  2698 ;; *************** function _ECAN_SetWakeUpInterruptHandler *****************
  2699 ;; Defined at:
  2700 ;;		line 439 in file "mcc_generated_files/ecan.c"
  2701 ;; Parameters:    Size  Location     Type
  2702 ;;  handler         2    4[COMRAM] PTR FTN()void 
  2703 ;;		 -> WakeUpDefaultInterruptHandler(1), 
  2704 ;; Auto vars:     Size  Location     Type
  2705 ;;		None
  2706 ;; Return value:  Size  Location     Type
  2707 ;;                  1    wreg      void 
  2708 ;; Registers used:
  2709 ;;		wreg, status,2, status,0
  2710 ;; Tracked objects:
  2711 ;;		On entry : 0/0
  2712 ;;		On exit  : 0/0
  2713 ;;		Unchanged: 0/0
  2714 ;; Data sizes:     COMRAM   BANK0   BANK1   BANK2   BANK3   BANK4   BANK5   BANK6   BANK7   BANK8   BANK9  BANK10  BANK1
      +1  BANK12  BANK13  BANK14
  2715 ;;      Params:         2       0       0       0       0       0       0       0       0       0       0       0       
      +0       0       0       0
  2716 ;;      Locals:         0       0       0       0       0       0       0       0       0       0       0       0       
      +0       0       0       0
  2717 ;;      Temps:          0       0       0       0       0       0       0       0       0       0       0       0       
      +0       0       0       0
  2718 ;;      Totals:         2       0       0       0       0       0       0       0       0       0       0       0       
      +0       0       0       0
  2719 ;;Total ram usage:        2 bytes
  2720 ;; Hardware stack levels used: 1
  2721 ;; Hardware stack levels required when called: 4
  2722 ;; This function calls:
  2723 ;;		Nothing
  2724 ;; This function is called by:
  2725 ;;		_ECAN_Initialize
  2726 ;; This function uses a non-reentrant model
  2727 ;;
  2728                           
  2729                           	psect	text19
  2730   0021E6                     __ptext19:
  2731                           	callstack 0
  2732   0021E6                     _ECAN_SetWakeUpInterruptHandler:
  2733                           	callstack 24
  2734   0021E6                     
  2735                           ;mcc_generated_files/ecan.c: 439: void ECAN_SetWakeUpInterruptHandler(void (*handler)(vo
      +                          id));mcc_generated_files/ecan.c: 440: {;mcc_generated_files/ecan.c: 441:     WakeUpInter
      +                          ruptHandler = handler;
  2736   0021E6  C005  F032         	movff	ECAN_SetWakeUpInterruptHandler@handler,_WakeUpInterruptHandler
  2737   0021EA  C006  F033         	movff	ECAN_SetWakeUpInterruptHandler@handler+1,_WakeUpInterruptHandler+1
  2738   0021EE  0012               	return		;funcret
  2739   0021F0                     __end_of_ECAN_SetWakeUpInterruptHandler:
  2740                           	callstack 0
  2741                           
  2742 ;; *************** function _ADC_Initialize *****************
  2743 ;; Defined at:
  2744 ;;		line 62 in file "mcc_generated_files/adc.c"
  2745 ;; Parameters:    Size  Location     Type
  2746 ;;		None
  2747 ;; Auto vars:     Size  Location     Type
  2748 ;;		None
  2749 ;; Return value:  Size  Location     Type
  2750 ;;                  1    wreg      void 
  2751 ;; Registers used:
  2752 ;;		wreg, status,2
  2753 ;; Tracked objects:
  2754 ;;		On entry : 0/0
  2755 ;;		On exit  : 0/0
  2756 ;;		Unchanged: 0/0
  2757 ;; Data sizes:     COMRAM   BANK0   BANK1   BANK2   BANK3   BANK4   BANK5   BANK6   BANK7   BANK8   BANK9  BANK10  BANK1
      +1  BANK12  BANK13  BANK14
  2758 ;;      Params:         0       0       0       0       0       0       0       0       0       0       0       0       
      +0       0       0       0
  2759 ;;      Locals:         0       0       0       0       0       0       0       0       0       0       0       0       
      +0       0       0       0
  2760 ;;      Temps:          0       0       0       0       0       0       0       0       0       0       0       0       
      +0       0       0       0
  2761 ;;      Totals:         0       0       0       0       0       0       0       0       0       0       0       0       
      +0       0       0       0
  2762 ;;Total ram usage:        0 bytes
  2763 ;; Hardware stack levels used: 1
  2764 ;; Hardware stack levels required when called: 4
  2765 ;; This function calls:
  2766 ;;		Nothing
  2767 ;; This function is called by:
  2768 ;;		_SYSTEM_Initialize
  2769 ;; This function uses a non-reentrant model
  2770 ;;
  2771                           
  2772                           	psect	text20
  2773   00218C                     __ptext20:
  2774                           	callstack 0
  2775   00218C                     _ADC_Initialize:
  2776                           	callstack 25
  2777   00218C                     
  2778                           ;mcc_generated_files/adc.c: 67:     ADCON0 = 0x01;
  2779   00218C  0E01               	movlw	1
  2780   00218E  6EC2               	movwf	194,c	;volatile
  2781                           
  2782                           ;mcc_generated_files/adc.c: 70:     ADCON1 = 0x30;
  2783   002190  0E30               	movlw	48
  2784   002192  6EC1               	movwf	193,c	;volatile
  2785                           
  2786                           ;mcc_generated_files/adc.c: 73:     ADCON2 = 0x9A;
  2787   002194  0E9A               	movlw	154
  2788   002196  6EC0               	movwf	192,c	;volatile
  2789                           
  2790                           ;mcc_generated_files/adc.c: 76:     ADRESH = 0x00;
  2791   002198  0E00               	movlw	0
  2792   00219A  6EC4               	movwf	196,c	;volatile
  2793                           
  2794                           ;mcc_generated_files/adc.c: 79:     ADRESL = 0x00;
  2795   00219C  0E00               	movlw	0
  2796   00219E  6EC3               	movwf	195,c	;volatile
  2797   0021A0  0012               	return		;funcret
  2798   0021A2                     __end_of_ADC_Initialize:
  2799                           	callstack 0
  2800                           
  2801 ;; *************** function _CAN_transmit *****************
  2802 ;; Defined at:
  2803 ;;		line 165 in file "mcc_generated_files/ecan.c"
  2804 ;; Parameters:    Size  Location     Type
  2805 ;;  tempCanMsg      2   22[COMRAM] PTR struct .
  2806 ;;		 -> main@txCan(14), 
  2807 ;; Auto vars:     Size  Location     Type
  2808 ;;  tempSIDL        1   27[COMRAM] unsigned char 
  2809 ;;  tempSIDH        1   26[COMRAM] unsigned char 
  2810 ;;  tempEIDL        1   25[COMRAM] unsigned char 
  2811 ;;  tempEIDH        1   24[COMRAM] unsigned char 
  2812 ;;  returnValue     1    0        unsigned char 
  2813 ;; Return value:  Size  Location     Type
  2814 ;;                  1    wreg      unsigned char 
  2815 ;; Registers used:
  2816 ;;		wreg, fsr2l, fsr2h, status,2, status,0, cstack
  2817 ;; Tracked objects:
  2818 ;;		On entry : 0/0
  2819 ;;		On exit  : 0/0
  2820 ;;		Unchanged: 0/0
  2821 ;; Data sizes:     COMRAM   BANK0   BANK1   BANK2   BANK3   BANK4   BANK5   BANK6   BANK7   BANK8   BANK9  BANK10  BANK1
      +1  BANK12  BANK13  BANK14
  2822 ;;      Params:         2       0       0       0       0       0       0       0       0       0       0       0       
      +0       0       0       0
  2823 ;;      Locals:         4       0       0       0       0       0       0       0       0       0       0       0       
      +0       0       0       0
  2824 ;;      Temps:          0       0       0       0       0       0       0       0       0       0       0       0       
      +0       0       0       0
  2825 ;;      Totals:         6       0       0       0       0       0       0       0       0       0       0       0       
      +0       0       0       0
  2826 ;;Total ram usage:        6 bytes
  2827 ;; Hardware stack levels used: 1
  2828 ;; Hardware stack levels required when called: 5
  2829 ;; This function calls:
  2830 ;;		_convertCANid2Reg
  2831 ;; This function is called by:
  2832 ;;		_main
  2833 ;; This function uses a non-reentrant model
  2834 ;;
  2835                           
  2836                           	psect	text21
  2837   001432                     __ptext21:
  2838                           	callstack 0
  2839   001432                     _CAN_transmit:
  2840                           	callstack 25
  2841   001432                     
  2842                           ;mcc_generated_files/ecan.c: 166:     uint8_t tempEIDH = 0;
  2843   001432  0E00               	movlw	0
  2844   001434  6E19               	movwf	CAN_transmit@tempEIDH^0,c
  2845                           
  2846                           ;mcc_generated_files/ecan.c: 167:     uint8_t tempEIDL = 0;
  2847   001436  0E00               	movlw	0
  2848   001438  6E1A               	movwf	CAN_transmit@tempEIDL^0,c
  2849                           
  2850                           ;mcc_generated_files/ecan.c: 168:     uint8_t tempSIDH = 0;
  2851   00143A  0E00               	movlw	0
  2852   00143C  6E1B               	movwf	CAN_transmit@tempSIDH^0,c
  2853                           
  2854                           ;mcc_generated_files/ecan.c: 169:     uint8_t tempSIDL = 0;
  2855   00143E  0E00               	movlw	0
  2856   001440  6E1C               	movwf	CAN_transmit@tempSIDL^0,c
  2857   001442                     
  2858                           ;mcc_generated_files/ecan.c: 173:     if (TXB0CONbits.TXREQ != 1)
  2859   001442  010F               	movlb	15	; () banked
  2860   001444  B720               	btfsc	32,3,b	;volatile
  2861   001446  EF27  F00A         	goto	u1461
  2862   00144A  EF29  F00A         	goto	u1460
  2863   00144E                     u1461:
  2864   00144E  EFA3  F00A         	goto	l341
  2865   001452                     u1460:
  2866   001452                     
  2867                           ; BSR set to: 15
  2868                           ;mcc_generated_files/ecan.c: 174:     {;mcc_generated_files/ecan.c: 175:         convert
      +                          CANid2Reg(tempCanMsg->frame.id, tempCanMsg->frame.idType, &tempEIDH, &tempEIDL, &tempSID
      +                          H, &tempSIDL);
  2869   001452  EE20 F001          	lfsr	2,1
  2870   001456  5017               	movf	CAN_transmit@tempCanMsg^0,w,c
  2871   001458  26D9               	addwf	fsr2l,f,c
  2872   00145A  5018               	movf	(CAN_transmit@tempCanMsg+1)^0,w,c
  2873   00145C  22DA               	addwfc	fsr2h,f,c
  2874   00145E  CFDE F005          	movff	postinc2,convertCANid2Reg@tempPassedInID
  2875   001462  CFDE F006          	movff	postinc2,convertCANid2Reg@tempPassedInID+1
  2876   001466  CFDE F007          	movff	postinc2,convertCANid2Reg@tempPassedInID+2
  2877   00146A  CFDE F008          	movff	postinc2,convertCANid2Reg@tempPassedInID+3
  2878   00146E  C017  FFD9         	movff	CAN_transmit@tempCanMsg,fsr2l
  2879   001472  C018  FFDA         	movff	CAN_transmit@tempCanMsg+1,fsr2h
  2880   001476  50DF               	movf	indf2,w,c
  2881   001478  6E09               	movwf	convertCANid2Reg@canIdType^0,c
  2882   00147A  0E19               	movlw	low CAN_transmit@tempEIDH
  2883   00147C  6E0A               	movwf	convertCANid2Reg@passedInEIDH^0,c
  2884   00147E  0E00               	movlw	high CAN_transmit@tempEIDH
  2885   001480  6E0B               	movwf	(convertCANid2Reg@passedInEIDH+1)^0,c
  2886   001482  0E1A               	movlw	low CAN_transmit@tempEIDL
  2887   001484  6E0C               	movwf	convertCANid2Reg@passedInEIDL^0,c
  2888   001486  0E00               	movlw	high CAN_transmit@tempEIDL
  2889   001488  6E0D               	movwf	(convertCANid2Reg@passedInEIDL+1)^0,c
  2890   00148A  0E1B               	movlw	low CAN_transmit@tempSIDH
  2891   00148C  6E0E               	movwf	convertCANid2Reg@passedInSIDH^0,c
  2892   00148E  0E00               	movlw	high CAN_transmit@tempSIDH
  2893   001490  6E0F               	movwf	(convertCANid2Reg@passedInSIDH+1)^0,c
  2894   001492  0E1C               	movlw	low CAN_transmit@tempSIDL
  2895   001494  6E10               	movwf	convertCANid2Reg@passedInSIDL^0,c
  2896   001496  0E00               	movlw	high CAN_transmit@tempSIDL
  2897   001498  6E11               	movwf	(convertCANid2Reg@passedInSIDL+1)^0,c
  2898   00149A  ECD0  F00C         	call	_convertCANid2Reg	;wreg free
  2899   00149E                     
  2900                           ;mcc_generated_files/ecan.c: 177:         TXB0EIDH = tempEIDH;
  2901   00149E  C019  FF23         	movff	CAN_transmit@tempEIDH,3875	;volatile
  2902   0014A2                     
  2903                           ;mcc_generated_files/ecan.c: 178:         TXB0EIDL = tempEIDL;
  2904   0014A2  C01A  FF24         	movff	CAN_transmit@tempEIDL,3876	;volatile
  2905   0014A6                     
  2906                           ;mcc_generated_files/ecan.c: 179:         TXB0SIDH = tempSIDH;
  2907   0014A6  C01B  FF21         	movff	CAN_transmit@tempSIDH,3873	;volatile
  2908   0014AA                     
  2909                           ;mcc_generated_files/ecan.c: 180:         TXB0SIDL = tempSIDL;
  2910   0014AA  C01C  FF22         	movff	CAN_transmit@tempSIDL,3874	;volatile
  2911   0014AE                     
  2912                           ;mcc_generated_files/ecan.c: 181:         TXB0DLC = tempCanMsg->frame.dlc;
  2913   0014AE  EE20 F005          	lfsr	2,5
  2914   0014B2  5017               	movf	CAN_transmit@tempCanMsg^0,w,c
  2915   0014B4  26D9               	addwf	fsr2l,f,c
  2916   0014B6  5018               	movf	(CAN_transmit@tempCanMsg+1)^0,w,c
  2917   0014B8  22DA               	addwfc	fsr2h,f,c
  2918   0014BA  50DF               	movf	indf2,w,c
  2919   0014BC  010F               	movlb	15	; () banked
  2920   0014BE  6F25               	movwf	37,b	;volatile
  2921   0014C0                     
  2922                           ; BSR set to: 15
  2923                           ;mcc_generated_files/ecan.c: 182:         TXB0D0 = tempCanMsg->frame.data0;
  2924   0014C0  EE20 F006          	lfsr	2,6
  2925   0014C4  5017               	movf	CAN_transmit@tempCanMsg^0,w,c
  2926   0014C6  26D9               	addwf	fsr2l,f,c
  2927   0014C8  5018               	movf	(CAN_transmit@tempCanMsg+1)^0,w,c
  2928   0014CA  22DA               	addwfc	fsr2h,f,c
  2929   0014CC  50DF               	movf	indf2,w,c
  2930   0014CE  6F26               	movwf	38,b	;volatile
  2931   0014D0                     
  2932                           ; BSR set to: 15
  2933                           ;mcc_generated_files/ecan.c: 183:         TXB0D1 = tempCanMsg->frame.data1;
  2934   0014D0  EE20 F007          	lfsr	2,7
  2935   0014D4  5017               	movf	CAN_transmit@tempCanMsg^0,w,c
  2936   0014D6  26D9               	addwf	fsr2l,f,c
  2937   0014D8  5018               	movf	(CAN_transmit@tempCanMsg+1)^0,w,c
  2938   0014DA  22DA               	addwfc	fsr2h,f,c
  2939   0014DC  50DF               	movf	indf2,w,c
  2940   0014DE  6F27               	movwf	39,b	;volatile
  2941   0014E0                     
  2942                           ; BSR set to: 15
  2943                           ;mcc_generated_files/ecan.c: 184:         TXB0D2 = tempCanMsg->frame.data2;
  2944   0014E0  EE20 F008          	lfsr	2,8
  2945   0014E4  5017               	movf	CAN_transmit@tempCanMsg^0,w,c
  2946   0014E6  26D9               	addwf	fsr2l,f,c
  2947   0014E8  5018               	movf	(CAN_transmit@tempCanMsg+1)^0,w,c
  2948   0014EA  22DA               	addwfc	fsr2h,f,c
  2949   0014EC  50DF               	movf	indf2,w,c
  2950   0014EE  6F28               	movwf	40,b	;volatile
  2951   0014F0                     
  2952                           ; BSR set to: 15
  2953                           ;mcc_generated_files/ecan.c: 185:         TXB0D3 = tempCanMsg->frame.data3;
  2954   0014F0  EE20 F009          	lfsr	2,9
  2955   0014F4  5017               	movf	CAN_transmit@tempCanMsg^0,w,c
  2956   0014F6  26D9               	addwf	fsr2l,f,c
  2957   0014F8  5018               	movf	(CAN_transmit@tempCanMsg+1)^0,w,c
  2958   0014FA  22DA               	addwfc	fsr2h,f,c
  2959   0014FC  50DF               	movf	indf2,w,c
  2960   0014FE  6F29               	movwf	41,b	;volatile
  2961   001500                     
  2962                           ; BSR set to: 15
  2963                           ;mcc_generated_files/ecan.c: 186:         TXB0D4 = tempCanMsg->frame.data4;
  2964   001500  EE20 F00A          	lfsr	2,10
  2965   001504  5017               	movf	CAN_transmit@tempCanMsg^0,w,c
  2966   001506  26D9               	addwf	fsr2l,f,c
  2967   001508  5018               	movf	(CAN_transmit@tempCanMsg+1)^0,w,c
  2968   00150A  22DA               	addwfc	fsr2h,f,c
  2969   00150C  50DF               	movf	indf2,w,c
  2970   00150E  6F2A               	movwf	42,b	;volatile
  2971   001510                     
  2972                           ; BSR set to: 15
  2973                           ;mcc_generated_files/ecan.c: 187:         TXB0D5 = tempCanMsg->frame.data5;
  2974   001510  EE20 F00B          	lfsr	2,11
  2975   001514  5017               	movf	CAN_transmit@tempCanMsg^0,w,c
  2976   001516  26D9               	addwf	fsr2l,f,c
  2977   001518  5018               	movf	(CAN_transmit@tempCanMsg+1)^0,w,c
  2978   00151A  22DA               	addwfc	fsr2h,f,c
  2979   00151C  50DF               	movf	indf2,w,c
  2980   00151E  6F2B               	movwf	43,b	;volatile
  2981   001520                     
  2982                           ; BSR set to: 15
  2983                           ;mcc_generated_files/ecan.c: 188:         TXB0D6 = tempCanMsg->frame.data6;
  2984   001520  EE20 F00C          	lfsr	2,12
  2985   001524  5017               	movf	CAN_transmit@tempCanMsg^0,w,c
  2986   001526  26D9               	addwf	fsr2l,f,c
  2987   001528  5018               	movf	(CAN_transmit@tempCanMsg+1)^0,w,c
  2988   00152A  22DA               	addwfc	fsr2h,f,c
  2989   00152C  50DF               	movf	indf2,w,c
  2990   00152E  6F2C               	movwf	44,b	;volatile
  2991   001530                     
  2992                           ; BSR set to: 15
  2993                           ;mcc_generated_files/ecan.c: 189:         TXB0D7 = tempCanMsg->frame.data7;
  2994   001530  EE20 F00D          	lfsr	2,13
  2995   001534  5017               	movf	CAN_transmit@tempCanMsg^0,w,c
  2996   001536  26D9               	addwf	fsr2l,f,c
  2997   001538  5018               	movf	(CAN_transmit@tempCanMsg+1)^0,w,c
  2998   00153A  22DA               	addwfc	fsr2h,f,c
  2999   00153C  50DF               	movf	indf2,w,c
  3000   00153E  6F2D               	movwf	45,b	;volatile
  3001   001540                     
  3002                           ; BSR set to: 15
  3003                           ;mcc_generated_files/ecan.c: 191:         TXB0CONbits.TXREQ = 1;
  3004   001540  8720               	bsf	32,3,b	;volatile
  3005   001542                     l2959:
  3006                           
  3007                           ; BSR set to: 15
  3008                           ;mcc_generated_files/ecan.c: 194:     }
  3009   001542  EFA5  F00B         	goto	l346
  3010   001546                     l341:
  3011                           
  3012                           ; BSR set to: 15
  3013   001546  B710               	btfsc	16,3,b	;volatile
  3014   001548  EFA8  F00A         	goto	u1471
  3015   00154C  EFAA  F00A         	goto	u1470
  3016   001550                     u1471:
  3017   001550  EF24  F00B         	goto	l343
  3018   001554                     u1470:
  3019   001554                     
  3020                           ; BSR set to: 15
  3021                           ;mcc_generated_files/ecan.c: 196:     {;mcc_generated_files/ecan.c: 198:         convert
      +                          CANid2Reg(tempCanMsg->frame.id, tempCanMsg->frame.idType, &tempEIDH, &tempEIDL, &tempSID
      +                          H, &tempSIDL);
  3022   001554  EE20 F001          	lfsr	2,1
  3023   001558  5017               	movf	CAN_transmit@tempCanMsg^0,w,c
  3024   00155A  26D9               	addwf	fsr2l,f,c
  3025   00155C  5018               	movf	(CAN_transmit@tempCanMsg+1)^0,w,c
  3026   00155E  22DA               	addwfc	fsr2h,f,c
  3027   001560  CFDE F005          	movff	postinc2,convertCANid2Reg@tempPassedInID
  3028   001564  CFDE F006          	movff	postinc2,convertCANid2Reg@tempPassedInID+1
  3029   001568  CFDE F007          	movff	postinc2,convertCANid2Reg@tempPassedInID+2
  3030   00156C  CFDE F008          	movff	postinc2,convertCANid2Reg@tempPassedInID+3
  3031   001570  C017  FFD9         	movff	CAN_transmit@tempCanMsg,fsr2l
  3032   001574  C018  FFDA         	movff	CAN_transmit@tempCanMsg+1,fsr2h
  3033   001578  50DF               	movf	indf2,w,c
  3034   00157A  6E09               	movwf	convertCANid2Reg@canIdType^0,c
  3035   00157C  0E19               	movlw	low CAN_transmit@tempEIDH
  3036   00157E  6E0A               	movwf	convertCANid2Reg@passedInEIDH^0,c
  3037   001580  0E00               	movlw	high CAN_transmit@tempEIDH
  3038   001582  6E0B               	movwf	(convertCANid2Reg@passedInEIDH+1)^0,c
  3039   001584  0E1A               	movlw	low CAN_transmit@tempEIDL
  3040   001586  6E0C               	movwf	convertCANid2Reg@passedInEIDL^0,c
  3041   001588  0E00               	movlw	high CAN_transmit@tempEIDL
  3042   00158A  6E0D               	movwf	(convertCANid2Reg@passedInEIDL+1)^0,c
  3043   00158C  0E1B               	movlw	low CAN_transmit@tempSIDH
  3044   00158E  6E0E               	movwf	convertCANid2Reg@passedInSIDH^0,c
  3045   001590  0E00               	movlw	high CAN_transmit@tempSIDH
  3046   001592  6E0F               	movwf	(convertCANid2Reg@passedInSIDH+1)^0,c
  3047   001594  0E1C               	movlw	low CAN_transmit@tempSIDL
  3048   001596  6E10               	movwf	convertCANid2Reg@passedInSIDL^0,c
  3049   001598  0E00               	movlw	high CAN_transmit@tempSIDL
  3050   00159A  6E11               	movwf	(convertCANid2Reg@passedInSIDL+1)^0,c
  3051   00159C  ECD0  F00C         	call	_convertCANid2Reg	;wreg free
  3052   0015A0                     
  3053                           ;mcc_generated_files/ecan.c: 200:         TXB1EIDH = tempEIDH;
  3054   0015A0  C019  FF13         	movff	CAN_transmit@tempEIDH,3859	;volatile
  3055   0015A4                     
  3056                           ;mcc_generated_files/ecan.c: 201:         TXB1EIDL = tempEIDL;
  3057   0015A4  C01A  FF14         	movff	CAN_transmit@tempEIDL,3860	;volatile
  3058   0015A8                     
  3059                           ;mcc_generated_files/ecan.c: 202:         TXB1SIDH = tempSIDH;
  3060   0015A8  C01B  FF11         	movff	CAN_transmit@tempSIDH,3857	;volatile
  3061   0015AC                     
  3062                           ;mcc_generated_files/ecan.c: 203:         TXB1SIDL = tempSIDL;
  3063   0015AC  C01C  FF12         	movff	CAN_transmit@tempSIDL,3858	;volatile
  3064   0015B0                     
  3065                           ;mcc_generated_files/ecan.c: 204:         TXB1DLC = tempCanMsg->frame.dlc;
  3066   0015B0  EE20 F005          	lfsr	2,5
  3067   0015B4  5017               	movf	CAN_transmit@tempCanMsg^0,w,c
  3068   0015B6  26D9               	addwf	fsr2l,f,c
  3069   0015B8  5018               	movf	(CAN_transmit@tempCanMsg+1)^0,w,c
  3070   0015BA  22DA               	addwfc	fsr2h,f,c
  3071   0015BC  50DF               	movf	indf2,w,c
  3072   0015BE  010F               	movlb	15	; () banked
  3073   0015C0  6F15               	movwf	21,b	;volatile
  3074   0015C2                     
  3075                           ; BSR set to: 15
  3076                           ;mcc_generated_files/ecan.c: 205:         TXB1D0 = tempCanMsg->frame.data0;
  3077   0015C2  EE20 F006          	lfsr	2,6
  3078   0015C6  5017               	movf	CAN_transmit@tempCanMsg^0,w,c
  3079   0015C8  26D9               	addwf	fsr2l,f,c
  3080   0015CA  5018               	movf	(CAN_transmit@tempCanMsg+1)^0,w,c
  3081   0015CC  22DA               	addwfc	fsr2h,f,c
  3082   0015CE  50DF               	movf	indf2,w,c
  3083   0015D0  6F16               	movwf	22,b	;volatile
  3084   0015D2                     
  3085                           ; BSR set to: 15
  3086                           ;mcc_generated_files/ecan.c: 206:         TXB1D1 = tempCanMsg->frame.data1;
  3087   0015D2  EE20 F007          	lfsr	2,7
  3088   0015D6  5017               	movf	CAN_transmit@tempCanMsg^0,w,c
  3089   0015D8  26D9               	addwf	fsr2l,f,c
  3090   0015DA  5018               	movf	(CAN_transmit@tempCanMsg+1)^0,w,c
  3091   0015DC  22DA               	addwfc	fsr2h,f,c
  3092   0015DE  50DF               	movf	indf2,w,c
  3093   0015E0  6F17               	movwf	23,b	;volatile
  3094   0015E2                     
  3095                           ; BSR set to: 15
  3096                           ;mcc_generated_files/ecan.c: 207:         TXB1D2 = tempCanMsg->frame.data2;
  3097   0015E2  EE20 F008          	lfsr	2,8
  3098   0015E6  5017               	movf	CAN_transmit@tempCanMsg^0,w,c
  3099   0015E8  26D9               	addwf	fsr2l,f,c
  3100   0015EA  5018               	movf	(CAN_transmit@tempCanMsg+1)^0,w,c
  3101   0015EC  22DA               	addwfc	fsr2h,f,c
  3102   0015EE  50DF               	movf	indf2,w,c
  3103   0015F0  6F18               	movwf	24,b	;volatile
  3104   0015F2                     
  3105                           ; BSR set to: 15
  3106                           ;mcc_generated_files/ecan.c: 208:         TXB1D3 = tempCanMsg->frame.data3;
  3107   0015F2  EE20 F009          	lfsr	2,9
  3108   0015F6  5017               	movf	CAN_transmit@tempCanMsg^0,w,c
  3109   0015F8  26D9               	addwf	fsr2l,f,c
  3110   0015FA  5018               	movf	(CAN_transmit@tempCanMsg+1)^0,w,c
  3111   0015FC  22DA               	addwfc	fsr2h,f,c
  3112   0015FE  50DF               	movf	indf2,w,c
  3113   001600  6F19               	movwf	25,b	;volatile
  3114   001602                     
  3115                           ; BSR set to: 15
  3116                           ;mcc_generated_files/ecan.c: 209:         TXB1D4 = tempCanMsg->frame.data4;
  3117   001602  EE20 F00A          	lfsr	2,10
  3118   001606  5017               	movf	CAN_transmit@tempCanMsg^0,w,c
  3119   001608  26D9               	addwf	fsr2l,f,c
  3120   00160A  5018               	movf	(CAN_transmit@tempCanMsg+1)^0,w,c
  3121   00160C  22DA               	addwfc	fsr2h,f,c
  3122   00160E  50DF               	movf	indf2,w,c
  3123   001610  6F1A               	movwf	26,b	;volatile
  3124   001612                     
  3125                           ; BSR set to: 15
  3126                           ;mcc_generated_files/ecan.c: 210:         TXB1D5 = tempCanMsg->frame.data5;
  3127   001612  EE20 F00B          	lfsr	2,11
  3128   001616  5017               	movf	CAN_transmit@tempCanMsg^0,w,c
  3129   001618  26D9               	addwf	fsr2l,f,c
  3130   00161A  5018               	movf	(CAN_transmit@tempCanMsg+1)^0,w,c
  3131   00161C  22DA               	addwfc	fsr2h,f,c
  3132   00161E  50DF               	movf	indf2,w,c
  3133   001620  6F1B               	movwf	27,b	;volatile
  3134   001622                     
  3135                           ; BSR set to: 15
  3136                           ;mcc_generated_files/ecan.c: 211:         TXB1D6 = tempCanMsg->frame.data6;
  3137   001622  EE20 F00C          	lfsr	2,12
  3138   001626  5017               	movf	CAN_transmit@tempCanMsg^0,w,c
  3139   001628  26D9               	addwf	fsr2l,f,c
  3140   00162A  5018               	movf	(CAN_transmit@tempCanMsg+1)^0,w,c
  3141   00162C  22DA               	addwfc	fsr2h,f,c
  3142   00162E  50DF               	movf	indf2,w,c
  3143   001630  6F1C               	movwf	28,b	;volatile
  3144   001632                     
  3145                           ; BSR set to: 15
  3146                           ;mcc_generated_files/ecan.c: 212:         TXB1D7 = tempCanMsg->frame.data7;
  3147   001632  EE20 F00D          	lfsr	2,13
  3148   001636  5017               	movf	CAN_transmit@tempCanMsg^0,w,c
  3149   001638  26D9               	addwf	fsr2l,f,c
  3150   00163A  5018               	movf	(CAN_transmit@tempCanMsg+1)^0,w,c
  3151   00163C  22DA               	addwfc	fsr2h,f,c
  3152   00163E  50DF               	movf	indf2,w,c
  3153   001640  6F1D               	movwf	29,b	;volatile
  3154   001642                     
  3155                           ; BSR set to: 15
  3156                           ;mcc_generated_files/ecan.c: 214:         TXB1CONbits.TXREQ = 1;
  3157   001642  8710               	bsf	16,3,b	;volatile
  3158   001644  EFA1  F00A         	goto	l2959
  3159   001648                     l343:
  3160                           
  3161                           ; BSR set to: 15
  3162   001648  B700               	btfsc	0,3,b	;volatile
  3163   00164A  EF29  F00B         	goto	u1481
  3164   00164E  EF2B  F00B         	goto	u1480
  3165   001652                     u1481:
  3166   001652  EFA5  F00B         	goto	l342
  3167   001656                     u1480:
  3168   001656                     
  3169                           ; BSR set to: 15
  3170                           ;mcc_generated_files/ecan.c: 218:     {;mcc_generated_files/ecan.c: 220:         convert
      +                          CANid2Reg(tempCanMsg->frame.id, tempCanMsg->frame.idType, &tempEIDH, &tempEIDL, &tempSID
      +                          H, &tempSIDL);
  3171   001656  EE20 F001          	lfsr	2,1
  3172   00165A  5017               	movf	CAN_transmit@tempCanMsg^0,w,c
  3173   00165C  26D9               	addwf	fsr2l,f,c
  3174   00165E  5018               	movf	(CAN_transmit@tempCanMsg+1)^0,w,c
  3175   001660  22DA               	addwfc	fsr2h,f,c
  3176   001662  CFDE F005          	movff	postinc2,convertCANid2Reg@tempPassedInID
  3177   001666  CFDE F006          	movff	postinc2,convertCANid2Reg@tempPassedInID+1
  3178   00166A  CFDE F007          	movff	postinc2,convertCANid2Reg@tempPassedInID+2
  3179   00166E  CFDE F008          	movff	postinc2,convertCANid2Reg@tempPassedInID+3
  3180   001672  C017  FFD9         	movff	CAN_transmit@tempCanMsg,fsr2l
  3181   001676  C018  FFDA         	movff	CAN_transmit@tempCanMsg+1,fsr2h
  3182   00167A  50DF               	movf	indf2,w,c
  3183   00167C  6E09               	movwf	convertCANid2Reg@canIdType^0,c
  3184   00167E  0E19               	movlw	low CAN_transmit@tempEIDH
  3185   001680  6E0A               	movwf	convertCANid2Reg@passedInEIDH^0,c
  3186   001682  0E00               	movlw	high CAN_transmit@tempEIDH
  3187   001684  6E0B               	movwf	(convertCANid2Reg@passedInEIDH+1)^0,c
  3188   001686  0E1A               	movlw	low CAN_transmit@tempEIDL
  3189   001688  6E0C               	movwf	convertCANid2Reg@passedInEIDL^0,c
  3190   00168A  0E00               	movlw	high CAN_transmit@tempEIDL
  3191   00168C  6E0D               	movwf	(convertCANid2Reg@passedInEIDL+1)^0,c
  3192   00168E  0E1B               	movlw	low CAN_transmit@tempSIDH
  3193   001690  6E0E               	movwf	convertCANid2Reg@passedInSIDH^0,c
  3194   001692  0E00               	movlw	high CAN_transmit@tempSIDH
  3195   001694  6E0F               	movwf	(convertCANid2Reg@passedInSIDH+1)^0,c
  3196   001696  0E1C               	movlw	low CAN_transmit@tempSIDL
  3197   001698  6E10               	movwf	convertCANid2Reg@passedInSIDL^0,c
  3198   00169A  0E00               	movlw	high CAN_transmit@tempSIDL
  3199   00169C  6E11               	movwf	(convertCANid2Reg@passedInSIDL+1)^0,c
  3200   00169E  ECD0  F00C         	call	_convertCANid2Reg	;wreg free
  3201   0016A2                     
  3202                           ;mcc_generated_files/ecan.c: 222:         TXB2EIDH = tempEIDH;
  3203   0016A2  C019  FF03         	movff	CAN_transmit@tempEIDH,3843	;volatile
  3204   0016A6                     
  3205                           ;mcc_generated_files/ecan.c: 223:         TXB2EIDL = tempEIDL;
  3206   0016A6  C01A  FF04         	movff	CAN_transmit@tempEIDL,3844	;volatile
  3207   0016AA                     
  3208                           ;mcc_generated_files/ecan.c: 224:         TXB2SIDH = tempSIDH;
  3209   0016AA  C01B  FF01         	movff	CAN_transmit@tempSIDH,3841	;volatile
  3210   0016AE                     
  3211                           ;mcc_generated_files/ecan.c: 225:         TXB2SIDL = tempSIDL;
  3212   0016AE  C01C  FF02         	movff	CAN_transmit@tempSIDL,3842	;volatile
  3213   0016B2                     
  3214                           ;mcc_generated_files/ecan.c: 226:         TXB2DLC = tempCanMsg->frame.dlc;
  3215   0016B2  EE20 F005          	lfsr	2,5
  3216   0016B6  5017               	movf	CAN_transmit@tempCanMsg^0,w,c
  3217   0016B8  26D9               	addwf	fsr2l,f,c
  3218   0016BA  5018               	movf	(CAN_transmit@tempCanMsg+1)^0,w,c
  3219   0016BC  22DA               	addwfc	fsr2h,f,c
  3220   0016BE  50DF               	movf	indf2,w,c
  3221   0016C0  010F               	movlb	15	; () banked
  3222   0016C2  6F05               	movwf	5,b	;volatile
  3223   0016C4                     
  3224                           ; BSR set to: 15
  3225                           ;mcc_generated_files/ecan.c: 227:         TXB2D0 = tempCanMsg->frame.data0;
  3226   0016C4  EE20 F006          	lfsr	2,6
  3227   0016C8  5017               	movf	CAN_transmit@tempCanMsg^0,w,c
  3228   0016CA  26D9               	addwf	fsr2l,f,c
  3229   0016CC  5018               	movf	(CAN_transmit@tempCanMsg+1)^0,w,c
  3230   0016CE  22DA               	addwfc	fsr2h,f,c
  3231   0016D0  50DF               	movf	indf2,w,c
  3232   0016D2  6F06               	movwf	6,b	;volatile
  3233   0016D4                     
  3234                           ; BSR set to: 15
  3235                           ;mcc_generated_files/ecan.c: 228:         TXB2D1 = tempCanMsg->frame.data1;
  3236   0016D4  EE20 F007          	lfsr	2,7
  3237   0016D8  5017               	movf	CAN_transmit@tempCanMsg^0,w,c
  3238   0016DA  26D9               	addwf	fsr2l,f,c
  3239   0016DC  5018               	movf	(CAN_transmit@tempCanMsg+1)^0,w,c
  3240   0016DE  22DA               	addwfc	fsr2h,f,c
  3241   0016E0  50DF               	movf	indf2,w,c
  3242   0016E2  6F07               	movwf	7,b	;volatile
  3243   0016E4                     
  3244                           ; BSR set to: 15
  3245                           ;mcc_generated_files/ecan.c: 229:         TXB2D2 = tempCanMsg->frame.data2;
  3246   0016E4  EE20 F008          	lfsr	2,8
  3247   0016E8  5017               	movf	CAN_transmit@tempCanMsg^0,w,c
  3248   0016EA  26D9               	addwf	fsr2l,f,c
  3249   0016EC  5018               	movf	(CAN_transmit@tempCanMsg+1)^0,w,c
  3250   0016EE  22DA               	addwfc	fsr2h,f,c
  3251   0016F0  50DF               	movf	indf2,w,c
  3252   0016F2  6F08               	movwf	8,b	;volatile
  3253   0016F4                     
  3254                           ; BSR set to: 15
  3255                           ;mcc_generated_files/ecan.c: 230:         TXB2D3 = tempCanMsg->frame.data3;
  3256   0016F4  EE20 F009          	lfsr	2,9
  3257   0016F8  5017               	movf	CAN_transmit@tempCanMsg^0,w,c
  3258   0016FA  26D9               	addwf	fsr2l,f,c
  3259   0016FC  5018               	movf	(CAN_transmit@tempCanMsg+1)^0,w,c
  3260   0016FE  22DA               	addwfc	fsr2h,f,c
  3261   001700  50DF               	movf	indf2,w,c
  3262   001702  6F09               	movwf	9,b	;volatile
  3263   001704                     
  3264                           ; BSR set to: 15
  3265                           ;mcc_generated_files/ecan.c: 231:         TXB2D4 = tempCanMsg->frame.data4;
  3266   001704  EE20 F00A          	lfsr	2,10
  3267   001708  5017               	movf	CAN_transmit@tempCanMsg^0,w,c
  3268   00170A  26D9               	addwf	fsr2l,f,c
  3269   00170C  5018               	movf	(CAN_transmit@tempCanMsg+1)^0,w,c
  3270   00170E  22DA               	addwfc	fsr2h,f,c
  3271   001710  50DF               	movf	indf2,w,c
  3272   001712  6F0A               	movwf	10,b	;volatile
  3273   001714                     
  3274                           ; BSR set to: 15
  3275                           ;mcc_generated_files/ecan.c: 232:         TXB2D5 = tempCanMsg->frame.data5;
  3276   001714  EE20 F00B          	lfsr	2,11
  3277   001718  5017               	movf	CAN_transmit@tempCanMsg^0,w,c
  3278   00171A  26D9               	addwf	fsr2l,f,c
  3279   00171C  5018               	movf	(CAN_transmit@tempCanMsg+1)^0,w,c
  3280   00171E  22DA               	addwfc	fsr2h,f,c
  3281   001720  50DF               	movf	indf2,w,c
  3282   001722  6F0B               	movwf	11,b	;volatile
  3283   001724                     
  3284                           ; BSR set to: 15
  3285                           ;mcc_generated_files/ecan.c: 233:         TXB2D6 = tempCanMsg->frame.data6;
  3286   001724  EE20 F00C          	lfsr	2,12
  3287   001728  5017               	movf	CAN_transmit@tempCanMsg^0,w,c
  3288   00172A  26D9               	addwf	fsr2l,f,c
  3289   00172C  5018               	movf	(CAN_transmit@tempCanMsg+1)^0,w,c
  3290   00172E  22DA               	addwfc	fsr2h,f,c
  3291   001730  50DF               	movf	indf2,w,c
  3292   001732  6F0C               	movwf	12,b	;volatile
  3293   001734                     
  3294                           ; BSR set to: 15
  3295                           ;mcc_generated_files/ecan.c: 234:         TXB2D7 = tempCanMsg->frame.data7;
  3296   001734  EE20 F00D          	lfsr	2,13
  3297   001738  5017               	movf	CAN_transmit@tempCanMsg^0,w,c
  3298   00173A  26D9               	addwf	fsr2l,f,c
  3299   00173C  5018               	movf	(CAN_transmit@tempCanMsg+1)^0,w,c
  3300   00173E  22DA               	addwfc	fsr2h,f,c
  3301   001740  50DF               	movf	indf2,w,c
  3302   001742  6F0D               	movwf	13,b	;volatile
  3303   001744                     
  3304                           ; BSR set to: 15
  3305                           ;mcc_generated_files/ecan.c: 236:         TXB2CONbits.TXREQ = 1;
  3306   001744  8700               	bsf	0,3,b	;volatile
  3307   001746  EFA1  F00A         	goto	l2959
  3308   00174A                     l342:
  3309   00174A                     l346:
  3310                           
  3311                           ; BSR set to: 15
  3312   00174A  0012               	return		;funcret
  3313   00174C                     __end_of_CAN_transmit:
  3314                           	callstack 0
  3315                           
  3316 ;; *************** function _convertCANid2Reg *****************
  3317 ;; Defined at:
  3318 ;;		line 402 in file "mcc_generated_files/ecan.c"
  3319 ;; Parameters:    Size  Location     Type
  3320 ;;  tempPassedIn    4    4[COMRAM] unsigned long 
  3321 ;;  canIdType       1    8[COMRAM] unsigned char 
  3322 ;;  passedInEIDH    2    9[COMRAM] PTR unsigned char 
  3323 ;;		 -> CAN_transmit@tempEIDH(1), 
  3324 ;;  passedInEIDL    2   11[COMRAM] PTR unsigned char 
  3325 ;;		 -> CAN_transmit@tempEIDL(1), 
  3326 ;;  passedInSIDH    2   13[COMRAM] PTR unsigned char 
  3327 ;;		 -> CAN_transmit@tempSIDH(1), 
  3328 ;;  passedInSIDL    2   15[COMRAM] PTR unsigned char 
  3329 ;;		 -> CAN_transmit@tempSIDL(1), 
  3330 ;; Auto vars:     Size  Location     Type
  3331 ;;  wipSIDL         1   21[COMRAM] unsigned char 
  3332 ;; Return value:  Size  Location     Type
  3333 ;;                  1    wreg      void 
  3334 ;; Registers used:
  3335 ;;		wreg, fsr2l, fsr2h, status,2, status,0
  3336 ;; Tracked objects:
  3337 ;;		On entry : 0/0
  3338 ;;		On exit  : 0/0
  3339 ;;		Unchanged: 0/0
  3340 ;; Data sizes:     COMRAM   BANK0   BANK1   BANK2   BANK3   BANK4   BANK5   BANK6   BANK7   BANK8   BANK9  BANK10  BANK1
      +1  BANK12  BANK13  BANK14
  3341 ;;      Params:        13       0       0       0       0       0       0       0       0       0       0       0       
      +0       0       0       0
  3342 ;;      Locals:         1       0       0       0       0       0       0       0       0       0       0       0       
      +0       0       0       0
  3343 ;;      Temps:          4       0       0       0       0       0       0       0       0       0       0       0       
      +0       0       0       0
  3344 ;;      Totals:        18       0       0       0       0       0       0       0       0       0       0       0       
      +0       0       0       0
  3345 ;;Total ram usage:       18 bytes
  3346 ;; Hardware stack levels used: 1
  3347 ;; Hardware stack levels required when called: 4
  3348 ;; This function calls:
  3349 ;;		Nothing
  3350 ;; This function is called by:
  3351 ;;		_CAN_transmit
  3352 ;; This function uses a non-reentrant model
  3353 ;;
  3354                           
  3355                           	psect	text22
  3356   0019A0                     __ptext22:
  3357                           	callstack 0
  3358   0019A0                     _convertCANid2Reg:
  3359                           	callstack 25
  3360   0019A0                     
  3361                           ;mcc_generated_files/ecan.c: 406:     if (canIdType == 2) {
  3362   0019A0  0E02               	movlw	2
  3363   0019A2  1809               	xorwf	convertCANid2Reg@canIdType^0,w,c
  3364   0019A4  A4D8               	btfss	status,2,c
  3365   0019A6  EFD7  F00C         	goto	u1401
  3366   0019AA  EFD9  F00C         	goto	u1400
  3367   0019AE                     u1401:
  3368   0019AE  EF5C  F00D         	goto	l2855
  3369   0019B2                     u1400:
  3370   0019B2                     
  3371                           ;mcc_generated_files/ecan.c: 409:         *passedInEIDL = 0xFF & tempPassedInID;
  3372   0019B2  C00C  FFD9         	movff	convertCANid2Reg@passedInEIDL,fsr2l
  3373   0019B6  C00D  FFDA         	movff	convertCANid2Reg@passedInEIDL+1,fsr2h
  3374   0019BA  C005  FFDF         	movff	convertCANid2Reg@tempPassedInID,indf2
  3375   0019BE                     
  3376                           ;mcc_generated_files/ecan.c: 410:         tempPassedInID = tempPassedInID >> 8;
  3377   0019BE  C005  F012         	movff	convertCANid2Reg@tempPassedInID,??_convertCANid2Reg
  3378   0019C2  C006  F013         	movff	convertCANid2Reg@tempPassedInID+1,??_convertCANid2Reg+1
  3379   0019C6  C007  F014         	movff	convertCANid2Reg@tempPassedInID+2,??_convertCANid2Reg+2
  3380   0019CA  C008  F015         	movff	convertCANid2Reg@tempPassedInID+3,??_convertCANid2Reg+3
  3381   0019CE  C013  F012         	movff	??_convertCANid2Reg+1,??_convertCANid2Reg
  3382   0019D2  C014  F013         	movff	??_convertCANid2Reg+2,??_convertCANid2Reg+1
  3383   0019D6  C015  F014         	movff	??_convertCANid2Reg+3,??_convertCANid2Reg+2
  3384   0019DA  6A15               	clrf	(??_convertCANid2Reg+3)^0,c
  3385   0019DC  C012  F005         	movff	??_convertCANid2Reg,convertCANid2Reg@tempPassedInID
  3386   0019E0  C013  F006         	movff	??_convertCANid2Reg+1,convertCANid2Reg@tempPassedInID+1
  3387   0019E4  C014  F007         	movff	??_convertCANid2Reg+2,convertCANid2Reg@tempPassedInID+2
  3388   0019E8  C015  F008         	movff	??_convertCANid2Reg+3,convertCANid2Reg@tempPassedInID+3
  3389   0019EC                     
  3390                           ;mcc_generated_files/ecan.c: 413:         *passedInEIDH = 0xFF & tempPassedInID;
  3391   0019EC  C00A  FFD9         	movff	convertCANid2Reg@passedInEIDH,fsr2l
  3392   0019F0  C00B  FFDA         	movff	convertCANid2Reg@passedInEIDH+1,fsr2h
  3393   0019F4  C005  FFDF         	movff	convertCANid2Reg@tempPassedInID,indf2
  3394                           
  3395                           ;mcc_generated_files/ecan.c: 414:         tempPassedInID = tempPassedInID >> 8;
  3396   0019F8  C005  F012         	movff	convertCANid2Reg@tempPassedInID,??_convertCANid2Reg
  3397   0019FC  C006  F013         	movff	convertCANid2Reg@tempPassedInID+1,??_convertCANid2Reg+1
  3398   001A00  C007  F014         	movff	convertCANid2Reg@tempPassedInID+2,??_convertCANid2Reg+2
  3399   001A04  C008  F015         	movff	convertCANid2Reg@tempPassedInID+3,??_convertCANid2Reg+3
  3400   001A08  C013  F012         	movff	??_convertCANid2Reg+1,??_convertCANid2Reg
  3401   001A0C  C014  F013         	movff	??_convertCANid2Reg+2,??_convertCANid2Reg+1
  3402   001A10  C015  F014         	movff	??_convertCANid2Reg+3,??_convertCANid2Reg+2
  3403   001A14  6A15               	clrf	(??_convertCANid2Reg+3)^0,c
  3404   001A16  C012  F005         	movff	??_convertCANid2Reg,convertCANid2Reg@tempPassedInID
  3405   001A1A  C013  F006         	movff	??_convertCANid2Reg+1,convertCANid2Reg@tempPassedInID+1
  3406   001A1E  C014  F007         	movff	??_convertCANid2Reg+2,convertCANid2Reg@tempPassedInID+2
  3407   001A22  C015  F008         	movff	??_convertCANid2Reg+3,convertCANid2Reg@tempPassedInID+3
  3408   001A26                     
  3409                           ;mcc_generated_files/ecan.c: 418:         wipSIDL = 0x03 & tempPassedInID;
  3410   001A26  5005               	movf	convertCANid2Reg@tempPassedInID^0,w,c
  3411   001A28  0B03               	andlw	3
  3412   001A2A  6E16               	movwf	convertCANid2Reg@wipSIDL^0,c
  3413   001A2C                     
  3414                           ;mcc_generated_files/ecan.c: 419:         tempPassedInID = tempPassedInID << 3;
  3415   001A2C  C005  F012         	movff	convertCANid2Reg@tempPassedInID,??_convertCANid2Reg
  3416   001A30  C006  F013         	movff	convertCANid2Reg@tempPassedInID+1,??_convertCANid2Reg+1
  3417   001A34  C007  F014         	movff	convertCANid2Reg@tempPassedInID+2,??_convertCANid2Reg+2
  3418   001A38  C008  F015         	movff	convertCANid2Reg@tempPassedInID+3,??_convertCANid2Reg+3
  3419   001A3C  0E03               	movlw	3
  3420   001A3E                     u1415:
  3421   001A3E  90D8               	bcf	status,0,c
  3422   001A40  3612               	rlcf	??_convertCANid2Reg^0,f,c
  3423   001A42  3613               	rlcf	(??_convertCANid2Reg+1)^0,f,c
  3424   001A44  3614               	rlcf	(??_convertCANid2Reg+2)^0,f,c
  3425   001A46  3615               	rlcf	(??_convertCANid2Reg+3)^0,f,c
  3426   001A48  2EE8               	decfsz	wreg,f,c
  3427   001A4A  EF1F  F00D         	goto	u1415
  3428   001A4E  C012  F005         	movff	??_convertCANid2Reg,convertCANid2Reg@tempPassedInID
  3429   001A52  C013  F006         	movff	??_convertCANid2Reg+1,convertCANid2Reg@tempPassedInID+1
  3430   001A56  C014  F007         	movff	??_convertCANid2Reg+2,convertCANid2Reg@tempPassedInID+2
  3431   001A5A  C015  F008         	movff	??_convertCANid2Reg+3,convertCANid2Reg@tempPassedInID+3
  3432   001A5E                     
  3433                           ;mcc_generated_files/ecan.c: 420:         wipSIDL = (0xE0 & tempPassedInID) + wipSIDL;
  3434   001A5E  5005               	movf	convertCANid2Reg@tempPassedInID^0,w,c
  3435   001A60  0BE0               	andlw	224
  3436   001A62  2416               	addwf	convertCANid2Reg@wipSIDL^0,w,c
  3437   001A64  6E16               	movwf	convertCANid2Reg@wipSIDL^0,c
  3438   001A66                     
  3439                           ;mcc_generated_files/ecan.c: 421:         wipSIDL = (uint8_t)(wipSIDL + 0x08);
  3440   001A66  5016               	movf	convertCANid2Reg@wipSIDL^0,w,c
  3441   001A68  0F08               	addlw	8
  3442   001A6A  6E16               	movwf	convertCANid2Reg@wipSIDL^0,c
  3443   001A6C                     
  3444                           ;mcc_generated_files/ecan.c: 422:         *passedInSIDL = (uint8_t)(0xEB & wipSIDL);
  3445   001A6C  5016               	movf	convertCANid2Reg@wipSIDL^0,w,c
  3446   001A6E  0BEB               	andlw	235
  3447   001A70  C010  FFD9         	movff	convertCANid2Reg@passedInSIDL,fsr2l
  3448   001A74  C011  FFDA         	movff	convertCANid2Reg@passedInSIDL+1,fsr2h
  3449   001A78  6EDF               	movwf	indf2,c
  3450   001A7A                     l2851:
  3451                           
  3452                           ;mcc_generated_files/ecan.c: 425:         tempPassedInID = tempPassedInID >> 8;
  3453   001A7A  C005  F012         	movff	convertCANid2Reg@tempPassedInID,??_convertCANid2Reg
  3454   001A7E  C006  F013         	movff	convertCANid2Reg@tempPassedInID+1,??_convertCANid2Reg+1
  3455   001A82  C007  F014         	movff	convertCANid2Reg@tempPassedInID+2,??_convertCANid2Reg+2
  3456   001A86  C008  F015         	movff	convertCANid2Reg@tempPassedInID+3,??_convertCANid2Reg+3
  3457   001A8A  C013  F012         	movff	??_convertCANid2Reg+1,??_convertCANid2Reg
  3458   001A8E  C014  F013         	movff	??_convertCANid2Reg+2,??_convertCANid2Reg+1
  3459   001A92  C015  F014         	movff	??_convertCANid2Reg+3,??_convertCANid2Reg+2
  3460   001A96  6A15               	clrf	(??_convertCANid2Reg+3)^0,c
  3461   001A98  C012  F005         	movff	??_convertCANid2Reg,convertCANid2Reg@tempPassedInID
  3462   001A9C  C013  F006         	movff	??_convertCANid2Reg+1,convertCANid2Reg@tempPassedInID+1
  3463   001AA0  C014  F007         	movff	??_convertCANid2Reg+2,convertCANid2Reg@tempPassedInID+2
  3464   001AA4  C015  F008         	movff	??_convertCANid2Reg+3,convertCANid2Reg@tempPassedInID+3
  3465   001AA8                     
  3466                           ;mcc_generated_files/ecan.c: 426:         *passedInSIDH = 0xFF & tempPassedInID;
  3467   001AA8  C00E  FFD9         	movff	convertCANid2Reg@passedInSIDH,fsr2l
  3468   001AAC  C00F  FFDA         	movff	convertCANid2Reg@passedInSIDH+1,fsr2h
  3469   001AB0  C005  FFDF         	movff	convertCANid2Reg@tempPassedInID,indf2
  3470                           
  3471                           ;mcc_generated_files/ecan.c: 427:     }
  3472   001AB4  EF89  F00D         	goto	l384
  3473   001AB8                     l2855:
  3474                           
  3475                           ;mcc_generated_files/ecan.c: 429:     {;mcc_generated_files/ecan.c: 430:         *passed
      +                          InEIDH = 0;
  3476   001AB8  C00A  FFD9         	movff	convertCANid2Reg@passedInEIDH,fsr2l
  3477   001ABC  C00B  FFDA         	movff	convertCANid2Reg@passedInEIDH+1,fsr2h
  3478   001AC0  0E00               	movlw	0
  3479   001AC2  6EDF               	movwf	indf2,c
  3480                           
  3481                           ;mcc_generated_files/ecan.c: 431:         *passedInEIDL = 0;
  3482   001AC4  C00C  FFD9         	movff	convertCANid2Reg@passedInEIDL,fsr2l
  3483   001AC8  C00D  FFDA         	movff	convertCANid2Reg@passedInEIDL+1,fsr2h
  3484   001ACC  0E00               	movlw	0
  3485   001ACE  6EDF               	movwf	indf2,c
  3486   001AD0                     
  3487                           ;mcc_generated_files/ecan.c: 432:         tempPassedInID = tempPassedInID << 5;
  3488   001AD0  C005  F012         	movff	convertCANid2Reg@tempPassedInID,??_convertCANid2Reg
  3489   001AD4  C006  F013         	movff	convertCANid2Reg@tempPassedInID+1,??_convertCANid2Reg+1
  3490   001AD8  C007  F014         	movff	convertCANid2Reg@tempPassedInID+2,??_convertCANid2Reg+2
  3491   001ADC  C008  F015         	movff	convertCANid2Reg@tempPassedInID+3,??_convertCANid2Reg+3
  3492   001AE0  0E05               	movlw	5
  3493   001AE2                     u1425:
  3494   001AE2  90D8               	bcf	status,0,c
  3495   001AE4  3612               	rlcf	??_convertCANid2Reg^0,f,c
  3496   001AE6  3613               	rlcf	(??_convertCANid2Reg+1)^0,f,c
  3497   001AE8  3614               	rlcf	(??_convertCANid2Reg+2)^0,f,c
  3498   001AEA  3615               	rlcf	(??_convertCANid2Reg+3)^0,f,c
  3499   001AEC  2EE8               	decfsz	wreg,f,c
  3500   001AEE  EF71  F00D         	goto	u1425
  3501   001AF2  C012  F005         	movff	??_convertCANid2Reg,convertCANid2Reg@tempPassedInID
  3502   001AF6  C013  F006         	movff	??_convertCANid2Reg+1,convertCANid2Reg@tempPassedInID+1
  3503   001AFA  C014  F007         	movff	??_convertCANid2Reg+2,convertCANid2Reg@tempPassedInID+2
  3504   001AFE  C015  F008         	movff	??_convertCANid2Reg+3,convertCANid2Reg@tempPassedInID+3
  3505   001B02                     
  3506                           ;mcc_generated_files/ecan.c: 433:         *passedInSIDL = 0xFF & tempPassedInID;
  3507   001B02  C010  FFD9         	movff	convertCANid2Reg@passedInSIDL,fsr2l
  3508   001B06  C011  FFDA         	movff	convertCANid2Reg@passedInSIDL+1,fsr2h
  3509   001B0A  C005  FFDF         	movff	convertCANid2Reg@tempPassedInID,indf2
  3510   001B0E  EF3D  F00D         	goto	l2851
  3511   001B12                     l384:
  3512   001B12  0012               	return		;funcret
  3513   001B14                     __end_of_convertCANid2Reg:
  3514                           	callstack 0
  3515                           
  3516 ;; *************** function _CAN_receive *****************
  3517 ;; Defined at:
  3518 ;;		line 243 in file "mcc_generated_files/ecan.c"
  3519 ;; Parameters:    Size  Location     Type
  3520 ;;  tempCanMsg      2   23[COMRAM] PTR struct .
  3521 ;;		 -> main@rxCan(14), 
  3522 ;; Auto vars:     Size  Location     Type
  3523 ;;  returnValue     1   25[COMRAM] unsigned char 
  3524 ;; Return value:  Size  Location     Type
  3525 ;;                  1    wreg      unsigned char 
  3526 ;; Registers used:
  3527 ;;		wreg, fsr2l, fsr2h, status,2, status,0, cstack
  3528 ;; Tracked objects:
  3529 ;;		On entry : 0/0
  3530 ;;		On exit  : 0/0
  3531 ;;		Unchanged: 0/0
  3532 ;; Data sizes:     COMRAM   BANK0   BANK1   BANK2   BANK3   BANK4   BANK5   BANK6   BANK7   BANK8   BANK9  BANK10  BANK1
      +1  BANK12  BANK13  BANK14
  3533 ;;      Params:         2       0       0       0       0       0       0       0       0       0       0       0       
      +0       0       0       0
  3534 ;;      Locals:         1       0       0       0       0       0       0       0       0       0       0       0       
      +0       0       0       0
  3535 ;;      Temps:          0       0       0       0       0       0       0       0       0       0       0       0       
      +0       0       0       0
  3536 ;;      Totals:         3       0       0       0       0       0       0       0       0       0       0       0       
      +0       0       0       0
  3537 ;;Total ram usage:        3 bytes
  3538 ;; Hardware stack levels used: 1
  3539 ;; Hardware stack levels required when called: 5
  3540 ;; This function calls:
  3541 ;;		_convertReg2ExtendedCANid
  3542 ;;		_convertReg2StandardCANid
  3543 ;; This function is called by:
  3544 ;;		_main
  3545 ;; This function uses a non-reentrant model
  3546 ;;
  3547                           
  3548                           	psect	text23
  3549   00174C                     __ptext23:
  3550                           	callstack 0
  3551   00174C                     _CAN_receive:
  3552                           	callstack 25
  3553   00174C                     
  3554                           ;mcc_generated_files/ecan.c: 243: uint8_t CAN_receive(uCAN_MSG *tempCanMsg);mcc_generate
      +                          d_files/ecan.c: 244: {;mcc_generated_files/ecan.c: 245:     uint8_t returnValue = 0;
  3555   00174C  0E00               	movlw	0
  3556   00174E  6E1A               	movwf	CAN_receive@returnValue^0,c
  3557   001750                     
  3558                           ;mcc_generated_files/ecan.c: 248:     if (RXB0CONbits.RXFUL != 0)
  3559   001750  AE60               	btfss	96,7,c	;volatile
  3560   001752  EFAD  F00B         	goto	u1491
  3561   001756  EFAF  F00B         	goto	u1490
  3562   00175A                     u1491:
  3563   00175A  EF3B  F00C         	goto	l349
  3564   00175E                     u1490:
  3565   00175E                     
  3566                           ;mcc_generated_files/ecan.c: 249:     {;mcc_generated_files/ecan.c: 250:         if ((RX
      +                          B0SIDL & 0x08) == 0x08)
  3567   00175E  A662               	btfss	98,3,c	;volatile
  3568   001760  EFB4  F00B         	goto	u1501
  3569   001764  EFB6  F00B         	goto	u1500
  3570   001768                     u1501:
  3571   001768  EFD5  F00B         	goto	l3037
  3572   00176C                     u1500:
  3573   00176C                     
  3574                           ;mcc_generated_files/ecan.c: 251:         {;mcc_generated_files/ecan.c: 253:            
      +                           tempCanMsg->frame.idType = (uint8_t) 2;
  3575   00176C  C018  FFD9         	movff	CAN_receive@tempCanMsg,fsr2l
  3576   001770  C019  FFDA         	movff	CAN_receive@tempCanMsg+1,fsr2h
  3577   001774  0E02               	movlw	2
  3578   001776  6EDF               	movwf	indf2,c
  3579   001778                     
  3580                           ;mcc_generated_files/ecan.c: 254:             tempCanMsg->frame.id = convertReg2Extended
      +                          CANid(RXB0EIDH, RXB0EIDL, RXB0SIDH, RXB0SIDL);
  3581   001778  CF64 F005          	movff	3940,convertReg2ExtendedCANid@tempRXBn_EIDL	;volatile
  3582   00177C  CF61 F006          	movff	3937,convertReg2ExtendedCANid@tempRXBn_SIDH	;volatile
  3583   001780  CF62 F007          	movff	3938,convertReg2ExtendedCANid@tempRXBn_SIDL	;volatile
  3584   001784  5063               	movf	99,w,c	;volatile
  3585   001786  EC8A  F00D         	call	_convertReg2ExtendedCANid
  3586   00178A  EE20 F001          	lfsr	2,1
  3587   00178E  5018               	movf	CAN_receive@tempCanMsg^0,w,c
  3588   001790  26D9               	addwf	fsr2l,f,c
  3589   001792  5019               	movf	(CAN_receive@tempCanMsg+1)^0,w,c
  3590   001794  22DA               	addwfc	fsr2h,f,c
  3591   001796  C005  FFDE         	movff	?_convertReg2ExtendedCANid,postinc2
  3592   00179A  C006  FFDE         	movff	?_convertReg2ExtendedCANid+1,postinc2
  3593   00179E  C007  FFDE         	movff	?_convertReg2ExtendedCANid+2,postinc2
  3594   0017A2  C008  FFDE         	movff	?_convertReg2ExtendedCANid+3,postinc2
  3595                           
  3596                           ;mcc_generated_files/ecan.c: 255:         }
  3597   0017A6  EFEE  F00B         	goto	l3041
  3598   0017AA                     l3037:
  3599                           
  3600                           ;mcc_generated_files/ecan.c: 257:         {;mcc_generated_files/ecan.c: 259:            
      +                           tempCanMsg->frame.idType = (uint8_t) 1;
  3601   0017AA  C018  FFD9         	movff	CAN_receive@tempCanMsg,fsr2l
  3602   0017AE  C019  FFDA         	movff	CAN_receive@tempCanMsg+1,fsr2h
  3603   0017B2  0E01               	movlw	1
  3604   0017B4  6EDF               	movwf	indf2,c
  3605   0017B6                     
  3606                           ;mcc_generated_files/ecan.c: 260:             tempCanMsg->frame.id = convertReg2Standard
      +                          CANid(RXB0SIDH, RXB0SIDL);
  3607   0017B6  CF62 F005          	movff	3938,convertReg2StandardCANid@tempRXBn_SIDL	;volatile
  3608   0017BA  5061               	movf	97,w,c	;volatile
  3609   0017BC  EC1F  F00F         	call	_convertReg2StandardCANid
  3610   0017C0  EE20 F001          	lfsr	2,1
  3611   0017C4  5018               	movf	CAN_receive@tempCanMsg^0,w,c
  3612   0017C6  26D9               	addwf	fsr2l,f,c
  3613   0017C8  5019               	movf	(CAN_receive@tempCanMsg+1)^0,w,c
  3614   0017CA  22DA               	addwfc	fsr2h,f,c
  3615   0017CC  C005  FFDE         	movff	?_convertReg2StandardCANid,postinc2
  3616   0017D0  C006  FFDE         	movff	?_convertReg2StandardCANid+1,postinc2
  3617   0017D4  C007  FFDE         	movff	?_convertReg2StandardCANid+2,postinc2
  3618   0017D8  C008  FFDE         	movff	?_convertReg2StandardCANid+3,postinc2
  3619   0017DC                     l3041:
  3620                           
  3621                           ;mcc_generated_files/ecan.c: 263:         tempCanMsg->frame.dlc = RXB0DLC;
  3622   0017DC  EE20 F005          	lfsr	2,5
  3623   0017E0  5018               	movf	CAN_receive@tempCanMsg^0,w,c
  3624   0017E2  26D9               	addwf	fsr2l,f,c
  3625   0017E4  5019               	movf	(CAN_receive@tempCanMsg+1)^0,w,c
  3626   0017E6  22DA               	addwfc	fsr2h,f,c
  3627   0017E8  CF65 FFDF          	movff	3941,indf2	;volatile
  3628   0017EC                     
  3629                           ;mcc_generated_files/ecan.c: 264:         tempCanMsg->frame.data0 = RXB0D0;
  3630   0017EC  EE20 F006          	lfsr	2,6
  3631   0017F0  5018               	movf	CAN_receive@tempCanMsg^0,w,c
  3632   0017F2  26D9               	addwf	fsr2l,f,c
  3633   0017F4  5019               	movf	(CAN_receive@tempCanMsg+1)^0,w,c
  3634   0017F6  22DA               	addwfc	fsr2h,f,c
  3635   0017F8  CF66 FFDF          	movff	3942,indf2	;volatile
  3636   0017FC                     
  3637                           ;mcc_generated_files/ecan.c: 265:         tempCanMsg->frame.data1 = RXB0D1;
  3638   0017FC  EE20 F007          	lfsr	2,7
  3639   001800  5018               	movf	CAN_receive@tempCanMsg^0,w,c
  3640   001802  26D9               	addwf	fsr2l,f,c
  3641   001804  5019               	movf	(CAN_receive@tempCanMsg+1)^0,w,c
  3642   001806  22DA               	addwfc	fsr2h,f,c
  3643   001808  CF67 FFDF          	movff	3943,indf2	;volatile
  3644   00180C                     
  3645                           ;mcc_generated_files/ecan.c: 266:         tempCanMsg->frame.data2 = RXB0D2;
  3646   00180C  EE20 F008          	lfsr	2,8
  3647   001810  5018               	movf	CAN_receive@tempCanMsg^0,w,c
  3648   001812  26D9               	addwf	fsr2l,f,c
  3649   001814  5019               	movf	(CAN_receive@tempCanMsg+1)^0,w,c
  3650   001816  22DA               	addwfc	fsr2h,f,c
  3651   001818  CF68 FFDF          	movff	3944,indf2	;volatile
  3652   00181C                     
  3653                           ;mcc_generated_files/ecan.c: 267:         tempCanMsg->frame.data3 = RXB0D3;
  3654   00181C  EE20 F009          	lfsr	2,9
  3655   001820  5018               	movf	CAN_receive@tempCanMsg^0,w,c
  3656   001822  26D9               	addwf	fsr2l,f,c
  3657   001824  5019               	movf	(CAN_receive@tempCanMsg+1)^0,w,c
  3658   001826  22DA               	addwfc	fsr2h,f,c
  3659   001828  CF69 FFDF          	movff	3945,indf2	;volatile
  3660   00182C                     
  3661                           ;mcc_generated_files/ecan.c: 268:         tempCanMsg->frame.data4 = RXB0D4;
  3662   00182C  EE20 F00A          	lfsr	2,10
  3663   001830  5018               	movf	CAN_receive@tempCanMsg^0,w,c
  3664   001832  26D9               	addwf	fsr2l,f,c
  3665   001834  5019               	movf	(CAN_receive@tempCanMsg+1)^0,w,c
  3666   001836  22DA               	addwfc	fsr2h,f,c
  3667   001838  CF6A FFDF          	movff	3946,indf2	;volatile
  3668   00183C                     
  3669                           ;mcc_generated_files/ecan.c: 269:         tempCanMsg->frame.data5 = RXB0D5;
  3670   00183C  EE20 F00B          	lfsr	2,11
  3671   001840  5018               	movf	CAN_receive@tempCanMsg^0,w,c
  3672   001842  26D9               	addwf	fsr2l,f,c
  3673   001844  5019               	movf	(CAN_receive@tempCanMsg+1)^0,w,c
  3674   001846  22DA               	addwfc	fsr2h,f,c
  3675   001848  CF6B FFDF          	movff	3947,indf2	;volatile
  3676   00184C                     
  3677                           ;mcc_generated_files/ecan.c: 270:         tempCanMsg->frame.data6 = RXB0D6;
  3678   00184C  EE20 F00C          	lfsr	2,12
  3679   001850  5018               	movf	CAN_receive@tempCanMsg^0,w,c
  3680   001852  26D9               	addwf	fsr2l,f,c
  3681   001854  5019               	movf	(CAN_receive@tempCanMsg+1)^0,w,c
  3682   001856  22DA               	addwfc	fsr2h,f,c
  3683   001858  CF6C FFDF          	movff	3948,indf2	;volatile
  3684   00185C                     
  3685                           ;mcc_generated_files/ecan.c: 271:         tempCanMsg->frame.data7 = RXB0D7;
  3686   00185C  EE20 F00D          	lfsr	2,13
  3687   001860  5018               	movf	CAN_receive@tempCanMsg^0,w,c
  3688   001862  26D9               	addwf	fsr2l,f,c
  3689   001864  5019               	movf	(CAN_receive@tempCanMsg+1)^0,w,c
  3690   001866  22DA               	addwfc	fsr2h,f,c
  3691   001868  CF6D FFDF          	movff	3949,indf2	;volatile
  3692   00186C                     
  3693                           ;mcc_generated_files/ecan.c: 272:         RXB0CONbits.RXFUL = 0;
  3694   00186C  9E60               	bcf	96,7,c	;volatile
  3695   00186E                     l3061:
  3696                           
  3697                           ;mcc_generated_files/ecan.c: 273:         returnValue = 1;
  3698   00186E  0E01               	movlw	1
  3699   001870  6E1A               	movwf	CAN_receive@returnValue^0,c
  3700                           
  3701                           ;mcc_generated_files/ecan.c: 274:     }
  3702   001872  EFCE  F00C         	goto	l3095
  3703   001876                     l349:
  3704   001876  010F               	movlb	15	; () banked
  3705   001878  AF30               	btfss	48,7,b	;volatile
  3706   00187A  EF41  F00C         	goto	u1511
  3707   00187E  EF43  F00C         	goto	u1510
  3708   001882                     u1511:
  3709   001882  EFCE  F00C         	goto	l3095
  3710   001886                     u1510:
  3711   001886                     
  3712                           ; BSR set to: 15
  3713                           ;mcc_generated_files/ecan.c: 276:     {;mcc_generated_files/ecan.c: 277:         if ((RX
      +                          B1SIDL & 0x08) == 0x08)
  3714   001886  A732               	btfss	50,3,b	;volatile
  3715   001888  EF48  F00C         	goto	u1521
  3716   00188C  EF4A  F00C         	goto	u1520
  3717   001890                     u1521:
  3718   001890  EF69  F00C         	goto	l3069
  3719   001894                     u1520:
  3720   001894                     
  3721                           ; BSR set to: 15
  3722                           ;mcc_generated_files/ecan.c: 278:         {;mcc_generated_files/ecan.c: 280:            
      +                           tempCanMsg->frame.idType = (uint8_t) 2;
  3723   001894  C018  FFD9         	movff	CAN_receive@tempCanMsg,fsr2l
  3724   001898  C019  FFDA         	movff	CAN_receive@tempCanMsg+1,fsr2h
  3725   00189C  0E02               	movlw	2
  3726   00189E  6EDF               	movwf	indf2,c
  3727   0018A0                     
  3728                           ; BSR set to: 15
  3729                           ;mcc_generated_files/ecan.c: 281:             tempCanMsg->frame.id = convertReg2Extended
      +                          CANid(RXB1EIDH, RXB1EIDL, RXB1SIDH, RXB1SIDL);
  3730   0018A0  CF34 F005          	movff	3892,convertReg2ExtendedCANid@tempRXBn_EIDL	;volatile
  3731   0018A4  CF31 F006          	movff	3889,convertReg2ExtendedCANid@tempRXBn_SIDH	;volatile
  3732   0018A8  CF32 F007          	movff	3890,convertReg2ExtendedCANid@tempRXBn_SIDL	;volatile
  3733   0018AC  5133               	movf	51,w,b	;volatile
  3734   0018AE  EC8A  F00D         	call	_convertReg2ExtendedCANid
  3735   0018B2  EE20 F001          	lfsr	2,1
  3736   0018B6  5018               	movf	CAN_receive@tempCanMsg^0,w,c
  3737   0018B8  26D9               	addwf	fsr2l,f,c
  3738   0018BA  5019               	movf	(CAN_receive@tempCanMsg+1)^0,w,c
  3739   0018BC  22DA               	addwfc	fsr2h,f,c
  3740   0018BE  C005  FFDE         	movff	?_convertReg2ExtendedCANid,postinc2
  3741   0018C2  C006  FFDE         	movff	?_convertReg2ExtendedCANid+1,postinc2
  3742   0018C6  C007  FFDE         	movff	?_convertReg2ExtendedCANid+2,postinc2
  3743   0018CA  C008  FFDE         	movff	?_convertReg2ExtendedCANid+3,postinc2
  3744                           
  3745                           ;mcc_generated_files/ecan.c: 282:         }
  3746   0018CE  EF82  F00C         	goto	l3073
  3747   0018D2                     l3069:
  3748                           
  3749                           ; BSR set to: 15
  3750                           ;mcc_generated_files/ecan.c: 284:         {;mcc_generated_files/ecan.c: 286:            
      +                           tempCanMsg->frame.idType = (uint8_t) 1;
  3751   0018D2  C018  FFD9         	movff	CAN_receive@tempCanMsg,fsr2l
  3752   0018D6  C019  FFDA         	movff	CAN_receive@tempCanMsg+1,fsr2h
  3753   0018DA  0E01               	movlw	1
  3754   0018DC  6EDF               	movwf	indf2,c
  3755   0018DE                     
  3756                           ; BSR set to: 15
  3757                           ;mcc_generated_files/ecan.c: 287:             tempCanMsg->frame.id = convertReg2Standard
      +                          CANid(RXB1SIDH, RXB1SIDL);
  3758   0018DE  CF32 F005          	movff	3890,convertReg2StandardCANid@tempRXBn_SIDL	;volatile
  3759   0018E2  5131               	movf	49,w,b	;volatile
  3760   0018E4  EC1F  F00F         	call	_convertReg2StandardCANid
  3761   0018E8  EE20 F001          	lfsr	2,1
  3762   0018EC  5018               	movf	CAN_receive@tempCanMsg^0,w,c
  3763   0018EE  26D9               	addwf	fsr2l,f,c
  3764   0018F0  5019               	movf	(CAN_receive@tempCanMsg+1)^0,w,c
  3765   0018F2  22DA               	addwfc	fsr2h,f,c
  3766   0018F4  C005  FFDE         	movff	?_convertReg2StandardCANid,postinc2
  3767   0018F8  C006  FFDE         	movff	?_convertReg2StandardCANid+1,postinc2
  3768   0018FC  C007  FFDE         	movff	?_convertReg2StandardCANid+2,postinc2
  3769   001900  C008  FFDE         	movff	?_convertReg2StandardCANid+3,postinc2
  3770   001904                     l3073:
  3771                           
  3772                           ;mcc_generated_files/ecan.c: 290:         tempCanMsg->frame.dlc = RXB1DLC;
  3773   001904  EE20 F005          	lfsr	2,5
  3774   001908  5018               	movf	CAN_receive@tempCanMsg^0,w,c
  3775   00190A  26D9               	addwf	fsr2l,f,c
  3776   00190C  5019               	movf	(CAN_receive@tempCanMsg+1)^0,w,c
  3777   00190E  22DA               	addwfc	fsr2h,f,c
  3778   001910  CF35 FFDF          	movff	3893,indf2	;volatile
  3779   001914                     
  3780                           ;mcc_generated_files/ecan.c: 291:         tempCanMsg->frame.data0 = RXB1D0;
  3781   001914  EE20 F006          	lfsr	2,6
  3782   001918  5018               	movf	CAN_receive@tempCanMsg^0,w,c
  3783   00191A  26D9               	addwf	fsr2l,f,c
  3784   00191C  5019               	movf	(CAN_receive@tempCanMsg+1)^0,w,c
  3785   00191E  22DA               	addwfc	fsr2h,f,c
  3786   001920  CF36 FFDF          	movff	3894,indf2	;volatile
  3787   001924                     
  3788                           ;mcc_generated_files/ecan.c: 292:         tempCanMsg->frame.data1 = RXB1D1;
  3789   001924  EE20 F007          	lfsr	2,7
  3790   001928  5018               	movf	CAN_receive@tempCanMsg^0,w,c
  3791   00192A  26D9               	addwf	fsr2l,f,c
  3792   00192C  5019               	movf	(CAN_receive@tempCanMsg+1)^0,w,c
  3793   00192E  22DA               	addwfc	fsr2h,f,c
  3794   001930  CF37 FFDF          	movff	3895,indf2	;volatile
  3795   001934                     
  3796                           ;mcc_generated_files/ecan.c: 293:         tempCanMsg->frame.data2 = RXB1D2;
  3797   001934  EE20 F008          	lfsr	2,8
  3798   001938  5018               	movf	CAN_receive@tempCanMsg^0,w,c
  3799   00193A  26D9               	addwf	fsr2l,f,c
  3800   00193C  5019               	movf	(CAN_receive@tempCanMsg+1)^0,w,c
  3801   00193E  22DA               	addwfc	fsr2h,f,c
  3802   001940  CF38 FFDF          	movff	3896,indf2	;volatile
  3803   001944                     
  3804                           ;mcc_generated_files/ecan.c: 294:         tempCanMsg->frame.data3 = RXB1D3;
  3805   001944  EE20 F009          	lfsr	2,9
  3806   001948  5018               	movf	CAN_receive@tempCanMsg^0,w,c
  3807   00194A  26D9               	addwf	fsr2l,f,c
  3808   00194C  5019               	movf	(CAN_receive@tempCanMsg+1)^0,w,c
  3809   00194E  22DA               	addwfc	fsr2h,f,c
  3810   001950  CF39 FFDF          	movff	3897,indf2	;volatile
  3811   001954                     
  3812                           ;mcc_generated_files/ecan.c: 295:         tempCanMsg->frame.data4 = RXB1D4;
  3813   001954  EE20 F00A          	lfsr	2,10
  3814   001958  5018               	movf	CAN_receive@tempCanMsg^0,w,c
  3815   00195A  26D9               	addwf	fsr2l,f,c
  3816   00195C  5019               	movf	(CAN_receive@tempCanMsg+1)^0,w,c
  3817   00195E  22DA               	addwfc	fsr2h,f,c
  3818   001960  CF3A FFDF          	movff	3898,indf2	;volatile
  3819   001964                     
  3820                           ;mcc_generated_files/ecan.c: 296:         tempCanMsg->frame.data5 = RXB1D5;
  3821   001964  EE20 F00B          	lfsr	2,11
  3822   001968  5018               	movf	CAN_receive@tempCanMsg^0,w,c
  3823   00196A  26D9               	addwf	fsr2l,f,c
  3824   00196C  5019               	movf	(CAN_receive@tempCanMsg+1)^0,w,c
  3825   00196E  22DA               	addwfc	fsr2h,f,c
  3826   001970  CF3B FFDF          	movff	3899,indf2	;volatile
  3827   001974                     
  3828                           ;mcc_generated_files/ecan.c: 297:         tempCanMsg->frame.data6 = RXB1D6;
  3829   001974  EE20 F00C          	lfsr	2,12
  3830   001978  5018               	movf	CAN_receive@tempCanMsg^0,w,c
  3831   00197A  26D9               	addwf	fsr2l,f,c
  3832   00197C  5019               	movf	(CAN_receive@tempCanMsg+1)^0,w,c
  3833   00197E  22DA               	addwfc	fsr2h,f,c
  3834   001980  CF3C FFDF          	movff	3900,indf2	;volatile
  3835   001984                     
  3836                           ;mcc_generated_files/ecan.c: 298:         tempCanMsg->frame.data7 = RXB1D7;
  3837   001984  EE20 F00D          	lfsr	2,13
  3838   001988  5018               	movf	CAN_receive@tempCanMsg^0,w,c
  3839   00198A  26D9               	addwf	fsr2l,f,c
  3840   00198C  5019               	movf	(CAN_receive@tempCanMsg+1)^0,w,c
  3841   00198E  22DA               	addwfc	fsr2h,f,c
  3842   001990  CF3D FFDF          	movff	3901,indf2	;volatile
  3843   001994                     
  3844                           ;mcc_generated_files/ecan.c: 299:         RXB1CONbits.RXFUL = 0;
  3845   001994  010F               	movlb	15	; () banked
  3846   001996  9F30               	bcf	48,7,b	;volatile
  3847   001998  EF37  F00C         	goto	l3061
  3848   00199C                     l3095:
  3849                           
  3850                           ;mcc_generated_files/ecan.c: 302:     return (returnValue);
  3851   00199C  501A               	movf	CAN_receive@returnValue^0,w,c
  3852   00199E  0012               	return		;funcret
  3853   0019A0                     __end_of_CAN_receive:
  3854                           	callstack 0
  3855                           
  3856 ;; *************** function _convertReg2StandardCANid *****************
  3857 ;; Defined at:
  3858 ;;		line 389 in file "mcc_generated_files/ecan.c"
  3859 ;; Parameters:    Size  Location     Type
  3860 ;;  tempRXBn_SID    1    wreg     unsigned char 
  3861 ;;  tempRXBn_SID    1    4[COMRAM] unsigned char 
  3862 ;; Auto vars:     Size  Location     Type
  3863 ;;  tempRXBn_SID    1   10[COMRAM] unsigned char 
  3864 ;;  ConvertedID     4   15[COMRAM] unsigned long 
  3865 ;;  returnValue     4   11[COMRAM] unsigned long 
  3866 ;; Return value:  Size  Location     Type
  3867 ;;                  4    4[COMRAM] unsigned long 
  3868 ;; Registers used:
  3869 ;;		wreg, status,2, status,0
  3870 ;; Tracked objects:
  3871 ;;		On entry : 0/0
  3872 ;;		On exit  : 0/0
  3873 ;;		Unchanged: 0/0
  3874 ;; Data sizes:     COMRAM   BANK0   BANK1   BANK2   BANK3   BANK4   BANK5   BANK6   BANK7   BANK8   BANK9  BANK10  BANK1
      +1  BANK12  BANK13  BANK14
  3875 ;;      Params:         4       0       0       0       0       0       0       0       0       0       0       0       
      +0       0       0       0
  3876 ;;      Locals:         9       0       0       0       0       0       0       0       0       0       0       0       
      +0       0       0       0
  3877 ;;      Temps:          2       0       0       0       0       0       0       0       0       0       0       0       
      +0       0       0       0
  3878 ;;      Totals:        15       0       0       0       0       0       0       0       0       0       0       0       
      +0       0       0       0
  3879 ;;Total ram usage:       15 bytes
  3880 ;; Hardware stack levels used: 1
  3881 ;; Hardware stack levels required when called: 4
  3882 ;; This function calls:
  3883 ;;		Nothing
  3884 ;; This function is called by:
  3885 ;;		_CAN_receive
  3886 ;; This function uses a non-reentrant model
  3887 ;;
  3888                           
  3889                           	psect	text24
  3890   001E3E                     __ptext24:
  3891                           	callstack 0
  3892   001E3E                     _convertReg2StandardCANid:
  3893                           	callstack 25
  3894                           
  3895                           ;incstack = 0
  3896                           ;convertReg2StandardCANid@tempRXBn_SIDH stored from wreg
  3897   001E3E  6E0B               	movwf	convertReg2StandardCANid@tempRXBn_SIDH^0,c
  3898   001E40                     
  3899                           ;mcc_generated_files/ecan.c: 392:     uint32_t ConvertedID;;mcc_generated_files/ecan.c: 
      +                          396:     ConvertedID = (uint32_t)(tempRXBn_SIDH << 3);
  3900   001E40  500B               	movf	convertReg2StandardCANid@tempRXBn_SIDH^0,w,c
  3901   001E42  6E09               	movwf	??_convertReg2StandardCANid^0,c
  3902   001E44  6A0A               	clrf	(??_convertReg2StandardCANid+1)^0,c
  3903   001E46  90D8               	bcf	status,0,c
  3904   001E48  3609               	rlcf	??_convertReg2StandardCANid^0,f,c
  3905   001E4A  360A               	rlcf	(??_convertReg2StandardCANid+1)^0,f,c
  3906   001E4C  90D8               	bcf	status,0,c
  3907   001E4E  3609               	rlcf	??_convertReg2StandardCANid^0,f,c
  3908   001E50  360A               	rlcf	(??_convertReg2StandardCANid+1)^0,f,c
  3909   001E52  90D8               	bcf	status,0,c
  3910   001E54  3609               	rlcf	??_convertReg2StandardCANid^0,f,c
  3911   001E56  360A               	rlcf	(??_convertReg2StandardCANid+1)^0,f,c
  3912   001E58  C009  F010         	movff	??_convertReg2StandardCANid,convertReg2StandardCANid@ConvertedID
  3913   001E5C  C00A  F011         	movff	??_convertReg2StandardCANid+1,convertReg2StandardCANid@ConvertedID+1
  3914   001E60  0E00               	movlw	0
  3915   001E62  BE11               	btfsc	(convertReg2StandardCANid@ConvertedID+1)^0,7,c
  3916   001E64  0EFF               	movlw	-1
  3917   001E66  6E12               	movwf	(convertReg2StandardCANid@ConvertedID+2)^0,c
  3918   001E68  6E13               	movwf	(convertReg2StandardCANid@ConvertedID+3)^0,c
  3919   001E6A                     
  3920                           ;mcc_generated_files/ecan.c: 397:     ConvertedID = ConvertedID + (uint32_t)(tempRXBn_SI
      +                          DL >> 5);
  3921   001E6A  C005  F009         	movff	convertReg2StandardCANid@tempRXBn_SIDL,??_convertReg2StandardCANid
  3922   001E6E  0E05               	movlw	5
  3923   001E70  6E0A               	movwf	(??_convertReg2StandardCANid+1)^0,c
  3924   001E72                     u1445:
  3925   001E72  90D8               	bcf	status,0,c
  3926   001E74  3209               	rrcf	??_convertReg2StandardCANid^0,f,c
  3927   001E76  2E0A               	decfsz	(??_convertReg2StandardCANid+1)^0,f,c
  3928   001E78  EF39  F00F         	goto	u1445
  3929   001E7C  5009               	movf	??_convertReg2StandardCANid^0,w,c
  3930   001E7E  2410               	addwf	convertReg2StandardCANid@ConvertedID^0,w,c
  3931   001E80  6E10               	movwf	convertReg2StandardCANid@ConvertedID^0,c
  3932   001E82  0E00               	movlw	0
  3933   001E84  2011               	addwfc	(convertReg2StandardCANid@ConvertedID+1)^0,w,c
  3934   001E86  6E11               	movwf	(convertReg2StandardCANid@ConvertedID+1)^0,c
  3935   001E88  0E00               	movlw	0
  3936   001E8A  2012               	addwfc	(convertReg2StandardCANid@ConvertedID+2)^0,w,c
  3937   001E8C  6E12               	movwf	(convertReg2StandardCANid@ConvertedID+2)^0,c
  3938   001E8E  0E00               	movlw	0
  3939   001E90  2013               	addwfc	(convertReg2StandardCANid@ConvertedID+3)^0,w,c
  3940   001E92  6E13               	movwf	(convertReg2StandardCANid@ConvertedID+3)^0,c
  3941   001E94                     
  3942                           ;mcc_generated_files/ecan.c: 398:     returnValue = ConvertedID;
  3943   001E94  C010  F00C         	movff	convertReg2StandardCANid@ConvertedID,convertReg2StandardCANid@returnValue
  3944   001E98  C011  F00D         	movff	convertReg2StandardCANid@ConvertedID+1,convertReg2StandardCANid@returnValue+1
  3945   001E9C  C012  F00E         	movff	convertReg2StandardCANid@ConvertedID+2,convertReg2StandardCANid@returnValue+2
  3946   001EA0  C013  F00F         	movff	convertReg2StandardCANid@ConvertedID+3,convertReg2StandardCANid@returnValue+3
  3947   001EA4                     
  3948                           ;mcc_generated_files/ecan.c: 399:     return (returnValue);
  3949   001EA4  C00C  F005         	movff	convertReg2StandardCANid@returnValue,?_convertReg2StandardCANid
  3950   001EA8  C00D  F006         	movff	convertReg2StandardCANid@returnValue+1,?_convertReg2StandardCANid+1
  3951   001EAC  C00E  F007         	movff	convertReg2StandardCANid@returnValue+2,?_convertReg2StandardCANid+2
  3952   001EB0  C00F  F008         	movff	convertReg2StandardCANid@returnValue+3,?_convertReg2StandardCANid+3
  3953   001EB4  0012               	return		;funcret
  3954   001EB6                     __end_of_convertReg2StandardCANid:
  3955                           	callstack 0
  3956                           
  3957 ;; *************** function _convertReg2ExtendedCANid *****************
  3958 ;; Defined at:
  3959 ;;		line 368 in file "mcc_generated_files/ecan.c"
  3960 ;; Parameters:    Size  Location     Type
  3961 ;;  tempRXBn_EID    1    wreg     unsigned char 
  3962 ;;  tempRXBn_EID    1    4[COMRAM] unsigned char 
  3963 ;;  tempRXBn_SID    1    5[COMRAM] unsigned char 
  3964 ;;  tempRXBn_SID    1    6[COMRAM] unsigned char 
  3965 ;; Auto vars:     Size  Location     Type
  3966 ;;  tempRXBn_EID    1   12[COMRAM] unsigned char 
  3967 ;;  ConvertedID     4   19[COMRAM] unsigned long 
  3968 ;;  returnValue     4   13[COMRAM] unsigned long 
  3969 ;;  CAN_standard    1   18[COMRAM] unsigned char 
  3970 ;;  CAN_standard    1   17[COMRAM] unsigned char 
  3971 ;; Return value:  Size  Location     Type
  3972 ;;                  4    4[COMRAM] unsigned long 
  3973 ;; Registers used:
  3974 ;;		wreg, status,2, status,0
  3975 ;; Tracked objects:
  3976 ;;		On entry : 0/0
  3977 ;;		On exit  : 0/0
  3978 ;;		Unchanged: 0/0
  3979 ;; Data sizes:     COMRAM   BANK0   BANK1   BANK2   BANK3   BANK4   BANK5   BANK6   BANK7   BANK8   BANK9  BANK10  BANK1
      +1  BANK12  BANK13  BANK14
  3980 ;;      Params:         4       0       0       0       0       0       0       0       0       0       0       0       
      +0       0       0       0
  3981 ;;      Locals:        11       0       0       0       0       0       0       0       0       0       0       0       
      +0       0       0       0
  3982 ;;      Temps:          4       0       0       0       0       0       0       0       0       0       0       0       
      +0       0       0       0
  3983 ;;      Totals:        19       0       0       0       0       0       0       0       0       0       0       0       
      +0       0       0       0
  3984 ;;Total ram usage:       19 bytes
  3985 ;; Hardware stack levels used: 1
  3986 ;; Hardware stack levels required when called: 4
  3987 ;; This function calls:
  3988 ;;		Nothing
  3989 ;; This function is called by:
  3990 ;;		_CAN_receive
  3991 ;; This function uses a non-reentrant model
  3992 ;;
  3993                           
  3994                           	psect	text25
  3995   001B14                     __ptext25:
  3996                           	callstack 0
  3997   001B14                     _convertReg2ExtendedCANid:
  3998                           	callstack 25
  3999                           
  4000                           ;incstack = 0
  4001                           ;convertReg2ExtendedCANid@tempRXBn_EIDH stored from wreg
  4002   001B14  6E0D               	movwf	convertReg2ExtendedCANid@tempRXBn_EIDH^0,c
  4003   001B16                     
  4004                           ;mcc_generated_files/ecan.c: 371:     uint32_t ConvertedID = 0;
  4005   001B16  0E00               	movlw	0
  4006   001B18  6E14               	movwf	convertReg2ExtendedCANid@ConvertedID^0,c
  4007   001B1A  0E00               	movlw	0
  4008   001B1C  6E15               	movwf	(convertReg2ExtendedCANid@ConvertedID+1)^0,c
  4009   001B1E  0E00               	movlw	0
  4010   001B20  6E16               	movwf	(convertReg2ExtendedCANid@ConvertedID+2)^0,c
  4011   001B22  0E00               	movlw	0
  4012   001B24  6E17               	movwf	(convertReg2ExtendedCANid@ConvertedID+3)^0,c
  4013   001B26                     
  4014                           ;mcc_generated_files/ecan.c: 372:     uint8_t CAN_standardLo_ID_lo2bits;;mcc_generated_f
      +                          iles/ecan.c: 373:     uint8_t CAN_standardLo_ID_hi3bits;;mcc_generated_files/ecan.c: 375
      +                          :     CAN_standardLo_ID_lo2bits = (uint8_t)(tempRXBn_SIDL & 0x03);
  4015   001B26  5007               	movf	convertReg2ExtendedCANid@tempRXBn_SIDL^0,w,c
  4016   001B28  0B03               	andlw	3
  4017   001B2A  6E12               	movwf	convertReg2ExtendedCANid@CAN_standardLo_ID_lo2bits^0,c
  4018   001B2C                     
  4019                           ;mcc_generated_files/ecan.c: 376:     CAN_standardLo_ID_hi3bits = (uint8_t)(tempRXBn_SID
      +                          L >> 5);
  4020   001B2C  3807               	swapf	convertReg2ExtendedCANid@tempRXBn_SIDL^0,w,c
  4021   001B2E  42E8               	rrncf	wreg,f,c
  4022   001B30  0B07               	andlw	7
  4023   001B32  6E13               	movwf	convertReg2ExtendedCANid@CAN_standardLo_ID_hi3bits^0,c
  4024   001B34                     
  4025                           ;mcc_generated_files/ecan.c: 377:     ConvertedID = (uint32_t)(tempRXBn_SIDH << 3);
  4026   001B34  5006               	movf	convertReg2ExtendedCANid@tempRXBn_SIDH^0,w,c
  4027   001B36  6E09               	movwf	??_convertReg2ExtendedCANid^0,c
  4028   001B38  6A0A               	clrf	(??_convertReg2ExtendedCANid+1)^0,c
  4029   001B3A  90D8               	bcf	status,0,c
  4030   001B3C  3609               	rlcf	??_convertReg2ExtendedCANid^0,f,c
  4031   001B3E  360A               	rlcf	(??_convertReg2ExtendedCANid+1)^0,f,c
  4032   001B40  90D8               	bcf	status,0,c
  4033   001B42  3609               	rlcf	??_convertReg2ExtendedCANid^0,f,c
  4034   001B44  360A               	rlcf	(??_convertReg2ExtendedCANid+1)^0,f,c
  4035   001B46  90D8               	bcf	status,0,c
  4036   001B48  3609               	rlcf	??_convertReg2ExtendedCANid^0,f,c
  4037   001B4A  360A               	rlcf	(??_convertReg2ExtendedCANid+1)^0,f,c
  4038   001B4C  C009  F014         	movff	??_convertReg2ExtendedCANid,convertReg2ExtendedCANid@ConvertedID
  4039   001B50  C00A  F015         	movff	??_convertReg2ExtendedCANid+1,convertReg2ExtendedCANid@ConvertedID+1
  4040   001B54  0E00               	movlw	0
  4041   001B56  BE15               	btfsc	(convertReg2ExtendedCANid@ConvertedID+1)^0,7,c
  4042   001B58  0EFF               	movlw	-1
  4043   001B5A  6E16               	movwf	(convertReg2ExtendedCANid@ConvertedID+2)^0,c
  4044   001B5C  6E17               	movwf	(convertReg2ExtendedCANid@ConvertedID+3)^0,c
  4045   001B5E                     
  4046                           ;mcc_generated_files/ecan.c: 378:     ConvertedID = ConvertedID + CAN_standardLo_ID_hi3b
      +                          its;
  4047   001B5E  5013               	movf	convertReg2ExtendedCANid@CAN_standardLo_ID_hi3bits^0,w,c
  4048   001B60  2414               	addwf	convertReg2ExtendedCANid@ConvertedID^0,w,c
  4049   001B62  6E14               	movwf	convertReg2ExtendedCANid@ConvertedID^0,c
  4050   001B64  0E00               	movlw	0
  4051   001B66  2015               	addwfc	(convertReg2ExtendedCANid@ConvertedID+1)^0,w,c
  4052   001B68  6E15               	movwf	(convertReg2ExtendedCANid@ConvertedID+1)^0,c
  4053   001B6A  0E00               	movlw	0
  4054   001B6C  2016               	addwfc	(convertReg2ExtendedCANid@ConvertedID+2)^0,w,c
  4055   001B6E  6E16               	movwf	(convertReg2ExtendedCANid@ConvertedID+2)^0,c
  4056   001B70  0E00               	movlw	0
  4057   001B72  2017               	addwfc	(convertReg2ExtendedCANid@ConvertedID+3)^0,w,c
  4058   001B74  6E17               	movwf	(convertReg2ExtendedCANid@ConvertedID+3)^0,c
  4059   001B76                     
  4060                           ;mcc_generated_files/ecan.c: 379:     ConvertedID = (ConvertedID << 2);
  4061   001B76  C014  F009         	movff	convertReg2ExtendedCANid@ConvertedID,??_convertReg2ExtendedCANid
  4062   001B7A  C015  F00A         	movff	convertReg2ExtendedCANid@ConvertedID+1,??_convertReg2ExtendedCANid+1
  4063   001B7E  C016  F00B         	movff	convertReg2ExtendedCANid@ConvertedID+2,??_convertReg2ExtendedCANid+2
  4064   001B82  C017  F00C         	movff	convertReg2ExtendedCANid@ConvertedID+3,??_convertReg2ExtendedCANid+3
  4065   001B86  0E02               	movlw	2
  4066   001B88                     u1435:
  4067   001B88  90D8               	bcf	status,0,c
  4068   001B8A  3609               	rlcf	??_convertReg2ExtendedCANid^0,f,c
  4069   001B8C  360A               	rlcf	(??_convertReg2ExtendedCANid+1)^0,f,c
  4070   001B8E  360B               	rlcf	(??_convertReg2ExtendedCANid+2)^0,f,c
  4071   001B90  360C               	rlcf	(??_convertReg2ExtendedCANid+3)^0,f,c
  4072   001B92  2EE8               	decfsz	wreg,f,c
  4073   001B94  EFC4  F00D         	goto	u1435
  4074   001B98  C009  F014         	movff	??_convertReg2ExtendedCANid,convertReg2ExtendedCANid@ConvertedID
  4075   001B9C  C00A  F015         	movff	??_convertReg2ExtendedCANid+1,convertReg2ExtendedCANid@ConvertedID+1
  4076   001BA0  C00B  F016         	movff	??_convertReg2ExtendedCANid+2,convertReg2ExtendedCANid@ConvertedID+2
  4077   001BA4  C00C  F017         	movff	??_convertReg2ExtendedCANid+3,convertReg2ExtendedCANid@ConvertedID+3
  4078   001BA8                     
  4079                           ;mcc_generated_files/ecan.c: 380:     ConvertedID = ConvertedID + CAN_standardLo_ID_lo2b
      +                          its;
  4080   001BA8  5012               	movf	convertReg2ExtendedCANid@CAN_standardLo_ID_lo2bits^0,w,c
  4081   001BAA  2414               	addwf	convertReg2ExtendedCANid@ConvertedID^0,w,c
  4082   001BAC  6E14               	movwf	convertReg2ExtendedCANid@ConvertedID^0,c
  4083   001BAE  0E00               	movlw	0
  4084   001BB0  2015               	addwfc	(convertReg2ExtendedCANid@ConvertedID+1)^0,w,c
  4085   001BB2  6E15               	movwf	(convertReg2ExtendedCANid@ConvertedID+1)^0,c
  4086   001BB4  0E00               	movlw	0
  4087   001BB6  2016               	addwfc	(convertReg2ExtendedCANid@ConvertedID+2)^0,w,c
  4088   001BB8  6E16               	movwf	(convertReg2ExtendedCANid@ConvertedID+2)^0,c
  4089   001BBA  0E00               	movlw	0
  4090   001BBC  2017               	addwfc	(convertReg2ExtendedCANid@ConvertedID+3)^0,w,c
  4091   001BBE  6E17               	movwf	(convertReg2ExtendedCANid@ConvertedID+3)^0,c
  4092                           
  4093                           ;mcc_generated_files/ecan.c: 381:     ConvertedID = (ConvertedID << 8);
  4094   001BC0  C014  F00A         	movff	convertReg2ExtendedCANid@ConvertedID,??_convertReg2ExtendedCANid+1
  4095   001BC4  C015  F00B         	movff	convertReg2ExtendedCANid@ConvertedID+1,??_convertReg2ExtendedCANid+2
  4096   001BC8  C016  F00C         	movff	convertReg2ExtendedCANid@ConvertedID+2,??_convertReg2ExtendedCANid+3
  4097   001BCC  6A09               	clrf	??_convertReg2ExtendedCANid^0,c
  4098   001BCE  C009  F014         	movff	??_convertReg2ExtendedCANid,convertReg2ExtendedCANid@ConvertedID
  4099   001BD2  C00A  F015         	movff	??_convertReg2ExtendedCANid+1,convertReg2ExtendedCANid@ConvertedID+1
  4100   001BD6  C00B  F016         	movff	??_convertReg2ExtendedCANid+2,convertReg2ExtendedCANid@ConvertedID+2
  4101   001BDA  C00C  F017         	movff	??_convertReg2ExtendedCANid+3,convertReg2ExtendedCANid@ConvertedID+3
  4102   001BDE                     
  4103                           ;mcc_generated_files/ecan.c: 382:     ConvertedID = ConvertedID + tempRXBn_EIDH;
  4104   001BDE  500D               	movf	convertReg2ExtendedCANid@tempRXBn_EIDH^0,w,c
  4105   001BE0  2414               	addwf	convertReg2ExtendedCANid@ConvertedID^0,w,c
  4106   001BE2  6E14               	movwf	convertReg2ExtendedCANid@ConvertedID^0,c
  4107   001BE4  0E00               	movlw	0
  4108   001BE6  2015               	addwfc	(convertReg2ExtendedCANid@ConvertedID+1)^0,w,c
  4109   001BE8  6E15               	movwf	(convertReg2ExtendedCANid@ConvertedID+1)^0,c
  4110   001BEA  0E00               	movlw	0
  4111   001BEC  2016               	addwfc	(convertReg2ExtendedCANid@ConvertedID+2)^0,w,c
  4112   001BEE  6E16               	movwf	(convertReg2ExtendedCANid@ConvertedID+2)^0,c
  4113   001BF0  0E00               	movlw	0
  4114   001BF2  2017               	addwfc	(convertReg2ExtendedCANid@ConvertedID+3)^0,w,c
  4115   001BF4  6E17               	movwf	(convertReg2ExtendedCANid@ConvertedID+3)^0,c
  4116   001BF6                     
  4117                           ;mcc_generated_files/ecan.c: 383:     ConvertedID = (ConvertedID << 8);
  4118   001BF6  C014  F00A         	movff	convertReg2ExtendedCANid@ConvertedID,??_convertReg2ExtendedCANid+1
  4119   001BFA  C015  F00B         	movff	convertReg2ExtendedCANid@ConvertedID+1,??_convertReg2ExtendedCANid+2
  4120   001BFE  C016  F00C         	movff	convertReg2ExtendedCANid@ConvertedID+2,??_convertReg2ExtendedCANid+3
  4121   001C02  6A09               	clrf	??_convertReg2ExtendedCANid^0,c
  4122   001C04  C009  F014         	movff	??_convertReg2ExtendedCANid,convertReg2ExtendedCANid@ConvertedID
  4123   001C08  C00A  F015         	movff	??_convertReg2ExtendedCANid+1,convertReg2ExtendedCANid@ConvertedID+1
  4124   001C0C  C00B  F016         	movff	??_convertReg2ExtendedCANid+2,convertReg2ExtendedCANid@ConvertedID+2
  4125   001C10  C00C  F017         	movff	??_convertReg2ExtendedCANid+3,convertReg2ExtendedCANid@ConvertedID+3
  4126                           
  4127                           ;mcc_generated_files/ecan.c: 384:     ConvertedID = ConvertedID + tempRXBn_EIDL;
  4128   001C14  5005               	movf	convertReg2ExtendedCANid@tempRXBn_EIDL^0,w,c
  4129   001C16  2414               	addwf	convertReg2ExtendedCANid@ConvertedID^0,w,c
  4130   001C18  6E14               	movwf	convertReg2ExtendedCANid@ConvertedID^0,c
  4131   001C1A  0E00               	movlw	0
  4132   001C1C  2015               	addwfc	(convertReg2ExtendedCANid@ConvertedID+1)^0,w,c
  4133   001C1E  6E15               	movwf	(convertReg2ExtendedCANid@ConvertedID+1)^0,c
  4134   001C20  0E00               	movlw	0
  4135   001C22  2016               	addwfc	(convertReg2ExtendedCANid@ConvertedID+2)^0,w,c
  4136   001C24  6E16               	movwf	(convertReg2ExtendedCANid@ConvertedID+2)^0,c
  4137   001C26  0E00               	movlw	0
  4138   001C28  2017               	addwfc	(convertReg2ExtendedCANid@ConvertedID+3)^0,w,c
  4139   001C2A  6E17               	movwf	(convertReg2ExtendedCANid@ConvertedID+3)^0,c
  4140   001C2C                     
  4141                           ;mcc_generated_files/ecan.c: 385:     returnValue = ConvertedID;
  4142   001C2C  C014  F00E         	movff	convertReg2ExtendedCANid@ConvertedID,convertReg2ExtendedCANid@returnValue
  4143   001C30  C015  F00F         	movff	convertReg2ExtendedCANid@ConvertedID+1,convertReg2ExtendedCANid@returnValue+1
  4144   001C34  C016  F010         	movff	convertReg2ExtendedCANid@ConvertedID+2,convertReg2ExtendedCANid@returnValue+2
  4145   001C38  C017  F011         	movff	convertReg2ExtendedCANid@ConvertedID+3,convertReg2ExtendedCANid@returnValue+3
  4146   001C3C                     
  4147                           ;mcc_generated_files/ecan.c: 386:     return (returnValue);
  4148   001C3C  C00E  F005         	movff	convertReg2ExtendedCANid@returnValue,?_convertReg2ExtendedCANid
  4149   001C40  C00F  F006         	movff	convertReg2ExtendedCANid@returnValue+1,?_convertReg2ExtendedCANid+1
  4150   001C44  C010  F007         	movff	convertReg2ExtendedCANid@returnValue+2,?_convertReg2ExtendedCANid+2
  4151   001C48  C011  F008         	movff	convertReg2ExtendedCANid@returnValue+3,?_convertReg2ExtendedCANid+3
  4152   001C4C  0012               	return		;funcret
  4153   001C4E                     __end_of_convertReg2ExtendedCANid:
  4154                           	callstack 0
  4155                           
  4156 ;; *************** function _ADC_GetConversion *****************
  4157 ;; Defined at:
  4158 ;;		line 108 in file "mcc_generated_files/adc.c"
  4159 ;; Parameters:    Size  Location     Type
  4160 ;;  channel         1    wreg     enum E12197
  4161 ;; Auto vars:     Size  Location     Type
  4162 ;;  channel         1    8[COMRAM] enum E12197
  4163 ;; Return value:  Size  Location     Type
  4164 ;;                  2    4[COMRAM] unsigned short 
  4165 ;; Registers used:
  4166 ;;		wreg, status,2, status,0
  4167 ;; Tracked objects:
  4168 ;;		On entry : 0/0
  4169 ;;		On exit  : 0/0
  4170 ;;		Unchanged: 0/0
  4171 ;; Data sizes:     COMRAM   BANK0   BANK1   BANK2   BANK3   BANK4   BANK5   BANK6   BANK7   BANK8   BANK9  BANK10  BANK1
      +1  BANK12  BANK13  BANK14
  4172 ;;      Params:         2       0       0       0       0       0       0       0       0       0       0       0       
      +0       0       0       0
  4173 ;;      Locals:         1       0       0       0       0       0       0       0       0       0       0       0       
      +0       0       0       0
  4174 ;;      Temps:          2       0       0       0       0       0       0       0       0       0       0       0       
      +0       0       0       0
  4175 ;;      Totals:         5       0       0       0       0       0       0       0       0       0       0       0       
      +0       0       0       0
  4176 ;;Total ram usage:        5 bytes
  4177 ;; Hardware stack levels used: 1
  4178 ;; Hardware stack levels required when called: 4
  4179 ;; This function calls:
  4180 ;;		Nothing
  4181 ;; This function is called by:
  4182 ;;		_main
  4183 ;; This function uses a non-reentrant model
  4184 ;;
  4185                           
  4186                           	psect	text26
  4187   001FEA                     __ptext26:
  4188                           	callstack 0
  4189   001FEA                     _ADC_GetConversion:
  4190                           	callstack 26
  4191                           
  4192                           ;incstack = 0
  4193                           ;ADC_GetConversion@channel stored from wreg
  4194   001FEA  6E09               	movwf	ADC_GetConversion@channel^0,c
  4195   001FEC                     
  4196                           ;mcc_generated_files/adc.c: 108: adc_result_t ADC_GetConversion(adc_channel_t channel);m
      +                          cc_generated_files/adc.c: 109: {;mcc_generated_files/adc.c: 111:     ADCON0bits.CHS = ch
      +                          annel;
  4197   001FEC  C009  F007         	movff	ADC_GetConversion@channel,??_ADC_GetConversion
  4198   001FF0  4607               	rlncf	??_ADC_GetConversion^0,f,c
  4199   001FF2  4607               	rlncf	??_ADC_GetConversion^0,f,c
  4200   001FF4  50C2               	movf	194,w,c	;volatile
  4201   001FF6  1807               	xorwf	??_ADC_GetConversion^0,w,c
  4202   001FF8  0B83               	andlw	-125
  4203   001FFA  1807               	xorwf	??_ADC_GetConversion^0,w,c
  4204   001FFC  6EC2               	movwf	194,c	;volatile
  4205   001FFE                     
  4206                           ;mcc_generated_files/adc.c: 114:     ADCON0bits.ADON = 1;
  4207   001FFE  80C2               	bsf	194,0,c	;volatile
  4208   002000                     
  4209                           ;mcc_generated_files/adc.c: 118:     ADCON0bits.GO_nDONE = 1;
  4210   002000  82C2               	bsf	194,1,c	;volatile
  4211   002002                     l583:
  4212                           
  4213                           ;mcc_generated_files/adc.c: 121:     while (ADCON0bits.GO_nDONE)
  4214   002002  B2C2               	btfsc	194,1,c	;volatile
  4215   002004  EF06  F010         	goto	u1531
  4216   002008  EF08  F010         	goto	u1530
  4217   00200C                     u1531:
  4218   00200C  EF01  F010         	goto	l583
  4219   002010                     u1530:
  4220   002010                     
  4221                           ;mcc_generated_files/adc.c: 126:     return ((adc_result_t)((ADRESH << 8) + ADRESL));
  4222   002010  50C4               	movf	196,w,c	;volatile
  4223   002012  6E08               	movwf	(??_ADC_GetConversion+1)^0,c
  4224   002014  6A07               	clrf	??_ADC_GetConversion^0,c
  4225   002016  50C3               	movf	195,w,c	;volatile
  4226   002018  2407               	addwf	??_ADC_GetConversion^0,w,c
  4227   00201A  6E05               	movwf	?_ADC_GetConversion^0,c
  4228   00201C  0E00               	movlw	0
  4229   00201E  2008               	addwfc	(??_ADC_GetConversion+1)^0,w,c
  4230   002020  6E06               	movwf	(?_ADC_GetConversion+1)^0,c
  4231   002022  0012               	return		;funcret
  4232   002024                     __end_of_ADC_GetConversion:
  4233                           	callstack 0
  4234                           
  4235 ;; *************** function _INTERRUPT_InterruptManager *****************
  4236 ;; Defined at:
  4237 ;;		line 58 in file "mcc_generated_files/interrupt_manager.c"
  4238 ;; Parameters:    Size  Location     Type
  4239 ;;		None
  4240 ;; Auto vars:     Size  Location     Type
  4241 ;;		None
  4242 ;; Return value:  Size  Location     Type
  4243 ;;                  1    wreg      void 
  4244 ;; Registers used:
  4245 ;;		wreg, status,2, status,0, pcl, pclath, pclatu, tosl, cstack
  4246 ;; Tracked objects:
  4247 ;;		On entry : 0/0
  4248 ;;		On exit  : 0/0
  4249 ;;		Unchanged: 0/0
  4250 ;; Data sizes:     COMRAM   BANK0   BANK1   BANK2   BANK3   BANK4   BANK5   BANK6   BANK7   BANK8   BANK9  BANK10  BANK1
      +1  BANK12  BANK13  BANK14
  4251 ;;      Params:         0       0       0       0       0       0       0       0       0       0       0       0       
      +0       0       0       0
  4252 ;;      Locals:         0       0       0       0       0       0       0       0       0       0       0       0       
      +0       0       0       0
  4253 ;;      Temps:          2       0       0       0       0       0       0       0       0       0       0       0       
      +0       0       0       0
  4254 ;;      Totals:         2       0       0       0       0       0       0       0       0       0       0       0       
      +0       0       0       0
  4255 ;;Total ram usage:        2 bytes
  4256 ;; Hardware stack levels used: 1
  4257 ;; Hardware stack levels required when called: 3
  4258 ;; This function calls:
  4259 ;;		_ECAN_WAKI_ISR
  4260 ;;		_TMR1_ISR
  4261 ;; This function is called by:
  4262 ;;		Interrupt level 2
  4263 ;; This function uses a non-reentrant model
  4264 ;;
  4265                           
  4266                           	psect	intcode
  4267   000008                     __pintcode:
  4268                           	callstack 0
  4269   000008                     _INTERRUPT_InterruptManager:
  4270                           	callstack 21
  4271                           
  4272                           ;incstack = 0
  4273   000008  823D               	bsf	int$flags,1,c	;set compiler interrupt flag (level 2)
  4274   00000A  CFFA F003          	movff	pclath,??_INTERRUPT_InterruptManager
  4275   00000E  CFFB F004          	movff	pclatu,??_INTERRUPT_InterruptManager+1
  4276   000012                     
  4277                           ;mcc_generated_files/interrupt_manager.c: 61:     if(INTCONbits.PEIE == 1)
  4278   000012  ACF2               	btfss	242,6,c	;volatile
  4279   000014  EF0E  F000         	goto	i2u100_41
  4280   000018  EF10  F000         	goto	i2u100_40
  4281   00001C                     i2u100_41:
  4282   00001C  EF34  F000         	goto	i2l86
  4283   000020                     i2u100_40:
  4284   000020                     
  4285                           ;mcc_generated_files/interrupt_manager.c: 62:     {;mcc_generated_files/interrupt_manage
      +                          r.c: 63:         if(PIE5bits.WAKIE == 1 && PIR5bits.WAKIF == 1)
  4286   000020  AC76               	btfss	118,6,c	;volatile
  4287   000022  EF15  F000         	goto	i2u101_41
  4288   000026  EF17  F000         	goto	i2u101_40
  4289   00002A                     i2u101_41:
  4290   00002A  EF22  F000         	goto	i2l81
  4291   00002E                     i2u101_40:
  4292   00002E  AC77               	btfss	119,6,c	;volatile
  4293   000030  EF1C  F000         	goto	i2u102_41
  4294   000034  EF1E  F000         	goto	i2u102_40
  4295   000038                     i2u102_41:
  4296   000038  EF22  F000         	goto	i2l81
  4297   00003C                     i2u102_40:
  4298   00003C                     
  4299                           ;mcc_generated_files/interrupt_manager.c: 64:         {;mcc_generated_files/interrupt_ma
      +                          nager.c: 65:             ECAN_WAKI_ISR();
  4300   00003C  ECAC  F010         	call	_ECAN_WAKI_ISR	;wreg free
  4301                           
  4302                           ;mcc_generated_files/interrupt_manager.c: 66:         }
  4303   000040  EF34  F000         	goto	i2l86
  4304   000044                     i2l81:
  4305   000044  A09D               	btfss	157,0,c	;volatile
  4306   000046  EF27  F000         	goto	i2u103_41
  4307   00004A  EF29  F000         	goto	i2u103_40
  4308   00004E                     i2u103_41:
  4309   00004E  EF34  F000         	goto	i2l82
  4310   000052                     i2u103_40:
  4311   000052  A09E               	btfss	158,0,c	;volatile
  4312   000054  EF2E  F000         	goto	i2u104_41
  4313   000058  EF30  F000         	goto	i2u104_40
  4314   00005C                     i2u104_41:
  4315   00005C  EF34  F000         	goto	i2l82
  4316   000060                     i2u104_40:
  4317   000060                     
  4318                           ;mcc_generated_files/interrupt_manager.c: 68:         {;mcc_generated_files/interrupt_ma
      +                          nager.c: 69:             TMR1_ISR();
  4319   000060  EC2E  F010         	call	_TMR1_ISR	;wreg free
  4320                           
  4321                           ;mcc_generated_files/interrupt_manager.c: 70:         }
  4322   000064  EF34  F000         	goto	i2l86
  4323   000068                     i2l82:
  4324   000068                     i2l86:
  4325   000068  C004  FFFB         	movff	??_INTERRUPT_InterruptManager+1,pclatu
  4326   00006C  C003  FFFA         	movff	??_INTERRUPT_InterruptManager,pclath
  4327   000070  923D               	bcf	int$flags,1,c	;clear compiler interrupt flag (level 2)
  4328   000072  0011               	retfie		f
  4329   000074                     __end_of_INTERRUPT_InterruptManager:
  4330                           	callstack 0
  4331                           
  4332 ;; *************** function _TMR1_ISR *****************
  4333 ;; Defined at:
  4334 ;;		line 157 in file "mcc_generated_files/tmr1.c"
  4335 ;; Parameters:    Size  Location     Type
  4336 ;;		None
  4337 ;; Auto vars:     Size  Location     Type
  4338 ;;		None
  4339 ;; Return value:  Size  Location     Type
  4340 ;;                  1    wreg      void 
  4341 ;; Registers used:
  4342 ;;		wreg, status,2, status,0, pcl, pclath, pclatu, tosl, cstack
  4343 ;; Tracked objects:
  4344 ;;		On entry : 0/0
  4345 ;;		On exit  : 0/0
  4346 ;;		Unchanged: 0/0
  4347 ;; Data sizes:     COMRAM   BANK0   BANK1   BANK2   BANK3   BANK4   BANK5   BANK6   BANK7   BANK8   BANK9  BANK10  BANK1
      +1  BANK12  BANK13  BANK14
  4348 ;;      Params:         0       0       0       0       0       0       0       0       0       0       0       0       
      +0       0       0       0
  4349 ;;      Locals:         0       0       0       0       0       0       0       0       0       0       0       0       
      +0       0       0       0
  4350 ;;      Temps:          0       0       0       0       0       0       0       0       0       0       0       0       
      +0       0       0       0
  4351 ;;      Totals:         0       0       0       0       0       0       0       0       0       0       0       0       
      +0       0       0       0
  4352 ;;Total ram usage:        0 bytes
  4353 ;; Hardware stack levels used: 1
  4354 ;; Hardware stack levels required when called: 2
  4355 ;; This function calls:
  4356 ;;		_TMR1_CallBack
  4357 ;;		_TMR1_WriteTimer
  4358 ;; This function is called by:
  4359 ;;		_INTERRUPT_InterruptManager
  4360 ;; This function uses a non-reentrant model
  4361 ;;
  4362                           
  4363                           	psect	text28
  4364   00205C                     __ptext28:
  4365                           	callstack 0
  4366   00205C                     _TMR1_ISR:
  4367                           	callstack 21
  4368   00205C                     
  4369                           ;mcc_generated_files/tmr1.c: 159:     static volatile unsigned int CountCallBack = 0;;mc
      +                          c_generated_files/tmr1.c: 162:     PIR1bits.TMR1IF = 0;
  4370   00205C  909E               	bcf	158,0,c	;volatile
  4371   00205E                     
  4372                           ;mcc_generated_files/tmr1.c: 163:     TMR1_WriteTimer(timer1ReloadVal);
  4373   00205E  C039  F001         	movff	_timer1ReloadVal,TMR1_WriteTimer@timerVal	;volatile
  4374   002062  C03A  F002         	movff	_timer1ReloadVal+1,TMR1_WriteTimer@timerVal+1	;volatile
  4375   002066  EC76  F010         	call	_TMR1_WriteTimer	;wreg free
  4376   00206A                     
  4377                           ;mcc_generated_files/tmr1.c: 166:     if (++CountCallBack >= 10)
  4378   00206A  4A30               	infsnz	TMR1_ISR@CountCallBack^0,f,c	;volatile
  4379   00206C  2A31               	incf	(TMR1_ISR@CountCallBack+1)^0,f,c	;volatile
  4380   00206E  5031               	movf	(TMR1_ISR@CountCallBack+1)^0,w,c	;volatile
  4381   002070  E109               	bnz	i2u89_40
  4382   002072  0E0A               	movlw	10
  4383   002074  5C30               	subwf	TMR1_ISR@CountCallBack^0,w,c	;volatile
  4384   002076  A0D8               	btfss	status,0,c
  4385   002078  EF40  F010         	goto	i2u89_41
  4386   00207C  EF42  F010         	goto	i2u89_40
  4387   002080                     i2u89_41:
  4388   002080  EF48  F010         	goto	i2l448
  4389   002084                     i2u89_40:
  4390   002084                     
  4391                           ;mcc_generated_files/tmr1.c: 167:     {;mcc_generated_files/tmr1.c: 169:         TMR1_Ca
      +                          llBack();
  4392   002084  EC49  F010         	call	_TMR1_CallBack	;wreg free
  4393   002088                     
  4394                           ;mcc_generated_files/tmr1.c: 172:         CountCallBack = 0;
  4395   002088  0E00               	movlw	0
  4396   00208A  6E31               	movwf	(TMR1_ISR@CountCallBack+1)^0,c	;volatile
  4397   00208C  0E00               	movlw	0
  4398   00208E  6E30               	movwf	TMR1_ISR@CountCallBack^0,c	;volatile
  4399   002090                     i2l448:
  4400   002090  0012               	return		;funcret
  4401   002092                     __end_of_TMR1_ISR:
  4402                           	callstack 0
  4403                           
  4404 ;; *************** function _TMR1_WriteTimer *****************
  4405 ;; Defined at:
  4406 ;;		line 120 in file "mcc_generated_files/tmr1.c"
  4407 ;; Parameters:    Size  Location     Type
  4408 ;;  timerVal        2    0[COMRAM] unsigned short 
  4409 ;; Auto vars:     Size  Location     Type
  4410 ;;		None
  4411 ;; Return value:  Size  Location     Type
  4412 ;;                  1    wreg      void 
  4413 ;; Registers used:
  4414 ;;		wreg, status,2
  4415 ;; Tracked objects:
  4416 ;;		On entry : 0/0
  4417 ;;		On exit  : 0/0
  4418 ;;		Unchanged: 0/0
  4419 ;; Data sizes:     COMRAM   BANK0   BANK1   BANK2   BANK3   BANK4   BANK5   BANK6   BANK7   BANK8   BANK9  BANK10  BANK1
      +1  BANK12  BANK13  BANK14
  4420 ;;      Params:         2       0       0       0       0       0       0       0       0       0       0       0       
      +0       0       0       0
  4421 ;;      Locals:         0       0       0       0       0       0       0       0       0       0       0       0       
      +0       0       0       0
  4422 ;;      Temps:          0       0       0       0       0       0       0       0       0       0       0       0       
      +0       0       0       0
  4423 ;;      Totals:         2       0       0       0       0       0       0       0       0       0       0       0       
      +0       0       0       0
  4424 ;;Total ram usage:        2 bytes
  4425 ;; Hardware stack levels used: 1
  4426 ;; This function calls:
  4427 ;;		Nothing
  4428 ;; This function is called by:
  4429 ;;		_TMR1_ISR
  4430 ;;		_TMR1_Reload
  4431 ;; This function uses a non-reentrant model
  4432 ;;
  4433                           
  4434                           	psect	text29
  4435   0020EC                     __ptext29:
  4436                           	callstack 0
  4437   0020EC                     _TMR1_WriteTimer:
  4438                           	callstack 22
  4439   0020EC                     
  4440                           ;mcc_generated_files/tmr1.c: 120: void TMR1_WriteTimer(uint16_t timerVal);mcc_generated_
      +                          files/tmr1.c: 121: {;mcc_generated_files/tmr1.c: 122:     if (T1CONbits.nT1SYNC == 1)
  4441   0020EC  A4CD               	btfss	205,2,c	;volatile
  4442   0020EE  EF7B  F010         	goto	i2u85_41
  4443   0020F2  EF7D  F010         	goto	i2u85_40
  4444   0020F6                     i2u85_41:
  4445   0020F6  EF85  F010         	goto	i2l2311
  4446   0020FA                     i2u85_40:
  4447   0020FA                     
  4448                           ;mcc_generated_files/tmr1.c: 123:     {;mcc_generated_files/tmr1.c: 125:         T1CONbi
      +                          ts.TMR1ON = 0;
  4449   0020FA  90CD               	bcf	205,0,c	;volatile
  4450   0020FC                     
  4451                           ;mcc_generated_files/tmr1.c: 128:         TMR1H = (uint8_t)(timerVal >> 8);
  4452   0020FC  5002               	movf	(TMR1_WriteTimer@timerVal+1)^0,w,c
  4453   0020FE  6ECF               	movwf	207,c	;volatile
  4454   002100                     
  4455                           ;mcc_generated_files/tmr1.c: 129:         TMR1L = (uint8_t)timerVal;
  4456   002100  C001  FFCE         	movff	TMR1_WriteTimer@timerVal,4046	;volatile
  4457   002104                     
  4458                           ;mcc_generated_files/tmr1.c: 132:         T1CONbits.TMR1ON =1;
  4459   002104  80CD               	bsf	205,0,c	;volatile
  4460                           
  4461                           ;mcc_generated_files/tmr1.c: 133:     }
  4462   002106  EF89  F010         	goto	i2l433
  4463   00210A                     i2l2311:
  4464                           
  4465                           ;mcc_generated_files/tmr1.c: 135:     {;mcc_generated_files/tmr1.c: 137:         TMR1H =
      +                           (uint8_t)(timerVal >> 8);
  4466   00210A  5002               	movf	(TMR1_WriteTimer@timerVal+1)^0,w,c
  4467   00210C  6ECF               	movwf	207,c	;volatile
  4468   00210E                     
  4469                           ;mcc_generated_files/tmr1.c: 138:         TMR1L = (uint8_t)timerVal;
  4470   00210E  C001  FFCE         	movff	TMR1_WriteTimer@timerVal,4046	;volatile
  4471   002112                     i2l433:
  4472   002112  0012               	return		;funcret
  4473   002114                     __end_of_TMR1_WriteTimer:
  4474                           	callstack 0
  4475                           
  4476 ;; *************** function _TMR1_CallBack *****************
  4477 ;; Defined at:
  4478 ;;		line 176 in file "mcc_generated_files/tmr1.c"
  4479 ;; Parameters:    Size  Location     Type
  4480 ;;		None
  4481 ;; Auto vars:     Size  Location     Type
  4482 ;;		None
  4483 ;; Return value:  Size  Location     Type
  4484 ;;                  1    wreg      void 
  4485 ;; Registers used:
  4486 ;;		wreg, status,2, status,0, pcl, pclath, pclatu, tosl, cstack
  4487 ;; Tracked objects:
  4488 ;;		On entry : 0/0
  4489 ;;		On exit  : 0/0
  4490 ;;		Unchanged: 0/0
  4491 ;; Data sizes:     COMRAM   BANK0   BANK1   BANK2   BANK3   BANK4   BANK5   BANK6   BANK7   BANK8   BANK9  BANK10  BANK1
      +1  BANK12  BANK13  BANK14
  4492 ;;      Params:         0       0       0       0       0       0       0       0       0       0       0       0       
      +0       0       0       0
  4493 ;;      Locals:         0       0       0       0       0       0       0       0       0       0       0       0       
      +0       0       0       0
  4494 ;;      Temps:          0       0       0       0       0       0       0       0       0       0       0       0       
      +0       0       0       0
  4495 ;;      Totals:         0       0       0       0       0       0       0       0       0       0       0       0       
      +0       0       0       0
  4496 ;;Total ram usage:        0 bytes
  4497 ;; Hardware stack levels used: 1
  4498 ;; Hardware stack levels required when called: 1
  4499 ;; This function calls:
  4500 ;;		Absolute function
  4501 ;;		_TMR1_DefaultInterruptHandler
  4502 ;;		_timer_1s
  4503 ;; This function is called by:
  4504 ;;		_TMR1_ISR
  4505 ;; This function uses a non-reentrant model
  4506 ;;
  4507                           
  4508                           	psect	text30
  4509   002092                     __ptext30:
  4510                           	callstack 0
  4511   002092                     _TMR1_CallBack:
  4512                           	callstack 21
  4513   002092                     
  4514                           ;mcc_generated_files/tmr1.c: 179:     if(TMR1_InterruptHandler)
  4515   002092  0100               	movlb	0	; () banked
  4516   002094  51AB               	movf	_TMR1_InterruptHandler& (0+255),w,b
  4517   002096  11AC               	iorwf	(_TMR1_InterruptHandler+1)& (0+255),w,b
  4518   002098  B4D8               	btfsc	status,2,c
  4519   00209A  EF51  F010         	goto	i2u86_41
  4520   00209E  EF53  F010         	goto	i2u86_40
  4521   0020A2                     i2u86_41:
  4522   0020A2  EF60  F010         	goto	i2l452
  4523   0020A6                     i2u86_40:
  4524   0020A6                     
  4525                           ; BSR set to: 0
  4526                           ;mcc_generated_files/tmr1.c: 180:     {;mcc_generated_files/tmr1.c: 181:         TMR1_In
      +                          terruptHandler();
  4527   0020A6  D802               	call	i2u87_48
  4528   0020A8  EF60  F010         	goto	i2u87_49
  4529   0020AC                     i2u87_48:
  4530   0020AC  0005               	push	
  4531   0020AE  6EFA               	movwf	pclath,c
  4532   0020B0  51AB               	movf	_TMR1_InterruptHandler& (0+255),w,b
  4533   0020B2  6EFD               	movwf	tosl,c
  4534   0020B4  51AC               	movf	(_TMR1_InterruptHandler+1)& (0+255),w,b
  4535   0020B6  6EFE               	movwf	tosh,c
  4536   0020B8  50F8               	movf	tblptru,w,c
  4537   0020BA  6EFF               	movwf	tosu,c
  4538   0020BC  50FA               	movf	pclath,w,c
  4539   0020BE  0012               	return		;indir
  4540   0020C0                     i2u87_49:
  4541   0020C0                     i2l452:
  4542   0020C0  0012               	return		;funcret
  4543   0020C2                     __end_of_TMR1_CallBack:
  4544                           	callstack 0
  4545                           
  4546 ;; *************** function _TMR1_DefaultInterruptHandler *****************
  4547 ;; Defined at:
  4548 ;;		line 189 in file "mcc_generated_files/tmr1.c"
  4549 ;; Parameters:    Size  Location     Type
  4550 ;;		None
  4551 ;; Auto vars:     Size  Location     Type
  4552 ;;		None
  4553 ;; Return value:  Size  Location     Type
  4554 ;;                  1    wreg      void 
  4555 ;; Registers used:
  4556 ;;		None
  4557 ;; Tracked objects:
  4558 ;;		On entry : 0/0
  4559 ;;		On exit  : 0/0
  4560 ;;		Unchanged: 0/0
  4561 ;; Data sizes:     COMRAM   BANK0   BANK1   BANK2   BANK3   BANK4   BANK5   BANK6   BANK7   BANK8   BANK9  BANK10  BANK1
      +1  BANK12  BANK13  BANK14
  4562 ;;      Params:         0       0       0       0       0       0       0       0       0       0       0       0       
      +0       0       0       0
  4563 ;;      Locals:         0       0       0       0       0       0       0       0       0       0       0       0       
      +0       0       0       0
  4564 ;;      Temps:          0       0       0       0       0       0       0       0       0       0       0       0       
      +0       0       0       0
  4565 ;;      Totals:         0       0       0       0       0       0       0       0       0       0       0       0       
      +0       0       0       0
  4566 ;;Total ram usage:        0 bytes
  4567 ;; Hardware stack levels used: 1
  4568 ;; This function calls:
  4569 ;;		Nothing
  4570 ;; This function is called by:
  4571 ;;		_TMR1_Initialize
  4572 ;;		_TMR1_CallBack
  4573 ;; This function uses a non-reentrant model
  4574 ;;
  4575                           
  4576                           	psect	text31
  4577   0021FC                     __ptext31:
  4578                           	callstack 0
  4579   0021FC                     _TMR1_DefaultInterruptHandler:
  4580                           	callstack 21
  4581   0021FC  0012               	return		;funcret
  4582   0021FE                     __end_of_TMR1_DefaultInterruptHandler:
  4583                           	callstack 0
  4584                           
  4585 ;; *************** function _timer_1s *****************
  4586 ;; Defined at:
  4587 ;;		line 60 in file "main.c"
  4588 ;; Parameters:    Size  Location     Type
  4589 ;;		None
  4590 ;; Auto vars:     Size  Location     Type
  4591 ;;		None
  4592 ;; Return value:  Size  Location     Type
  4593 ;;                  1    wreg      void 
  4594 ;; Registers used:
  4595 ;;		wreg, status,2
  4596 ;; Tracked objects:
  4597 ;;		On entry : 0/0
  4598 ;;		On exit  : 0/0
  4599 ;;		Unchanged: 0/0
  4600 ;; Data sizes:     COMRAM   BANK0   BANK1   BANK2   BANK3   BANK4   BANK5   BANK6   BANK7   BANK8   BANK9  BANK10  BANK1
      +1  BANK12  BANK13  BANK14
  4601 ;;      Params:         0       0       0       0       0       0       0       0       0       0       0       0       
      +0       0       0       0
  4602 ;;      Locals:         0       0       0       0       0       0       0       0       0       0       0       0       
      +0       0       0       0
  4603 ;;      Temps:          0       0       0       0       0       0       0       0       0       0       0       0       
      +0       0       0       0
  4604 ;;      Totals:         0       0       0       0       0       0       0       0       0       0       0       0       
      +0       0       0       0
  4605 ;;Total ram usage:        0 bytes
  4606 ;; Hardware stack levels used: 1
  4607 ;; This function calls:
  4608 ;;		Nothing
  4609 ;; This function is called by:
  4610 ;;		_main
  4611 ;;		_TMR1_CallBack
  4612 ;; This function uses a non-reentrant model
  4613 ;;
  4614                           
  4615                           	psect	text32
  4616   0021F0                     __ptext32:
  4617                           	callstack 0
  4618   0021F0                     _timer_1s:
  4619                           	callstack 21
  4620   0021F0                     
  4621                           ;main.c: 61:     flag_timer_1s = 1;
  4622   0021F0  0E01               	movlw	1
  4623   0021F2  6E37               	movwf	_flag_timer_1s^0,c
  4624   0021F4  0012               	return		;funcret
  4625   0021F6                     __end_of_timer_1s:
  4626                           	callstack 0
  4627                           
  4628 ;; *************** function _ECAN_WAKI_ISR *****************
  4629 ;; Defined at:
  4630 ;;		line 444 in file "mcc_generated_files/ecan.c"
  4631 ;; Parameters:    Size  Location     Type
  4632 ;;		None
  4633 ;; Auto vars:     Size  Location     Type
  4634 ;;		None
  4635 ;; Return value:  Size  Location     Type
  4636 ;;                  1    wreg      void 
  4637 ;; Registers used:
  4638 ;;		wreg, pcl, pclath, pclatu, tosl, cstack
  4639 ;; Tracked objects:
  4640 ;;		On entry : 0/0
  4641 ;;		On exit  : 0/0
  4642 ;;		Unchanged: 0/0
  4643 ;; Data sizes:     COMRAM   BANK0   BANK1   BANK2   BANK3   BANK4   BANK5   BANK6   BANK7   BANK8   BANK9  BANK10  BANK1
      +1  BANK12  BANK13  BANK14
  4644 ;;      Params:         0       0       0       0       0       0       0       0       0       0       0       0       
      +0       0       0       0
  4645 ;;      Locals:         0       0       0       0       0       0       0       0       0       0       0       0       
      +0       0       0       0
  4646 ;;      Temps:          0       0       0       0       0       0       0       0       0       0       0       0       
      +0       0       0       0
  4647 ;;      Totals:         0       0       0       0       0       0       0       0       0       0       0       0       
      +0       0       0       0
  4648 ;;Total ram usage:        0 bytes
  4649 ;; Hardware stack levels used: 1
  4650 ;; Hardware stack levels required when called: 1
  4651 ;; This function calls:
  4652 ;;		Absolute function
  4653 ;;		_WakeUpDefaultInterruptHandler
  4654 ;; This function is called by:
  4655 ;;		_INTERRUPT_InterruptManager
  4656 ;; This function uses a non-reentrant model
  4657 ;;
  4658                           
  4659                           	psect	text33
  4660   002158                     __ptext33:
  4661                           	callstack 0
  4662   002158                     _ECAN_WAKI_ISR:
  4663                           	callstack 22
  4664   002158                     
  4665                           ;mcc_generated_files/ecan.c: 446:     WakeUpInterruptHandler();
  4666   002158  D802               	call	i2u18_48
  4667   00215A  EFB9  F010         	goto	i2u18_49
  4668   00215E                     i2u18_48:
  4669   00215E  0005               	push	
  4670   002160  6EFA               	movwf	pclath,c
  4671   002162  5032               	movf	_WakeUpInterruptHandler^0,w,c
  4672   002164  6EFD               	movwf	tosl,c
  4673   002166  5033               	movf	(_WakeUpInterruptHandler+1)^0,w,c
  4674   002168  6EFE               	movwf	tosh,c
  4675   00216A  50F8               	movf	tblptru,w,c
  4676   00216C  6EFF               	movwf	tosu,c
  4677   00216E  50FA               	movf	pclath,w,c
  4678   002170  0012               	return		;indir
  4679   002172                     i2u18_49:
  4680   002172                     
  4681                           ;mcc_generated_files/ecan.c: 447:     PIR5bits.WAKIF = 0;
  4682   002172  9C77               	bcf	119,6,c	;volatile
  4683   002174  0012               	return		;funcret
  4684   002176                     __end_of_ECAN_WAKI_ISR:
  4685                           	callstack 0
  4686                           
  4687 ;; *************** function _WakeUpDefaultInterruptHandler *****************
  4688 ;; Defined at:
  4689 ;;		line 63 in file "mcc_generated_files/ecan.c"
  4690 ;; Parameters:    Size  Location     Type
  4691 ;;		None
  4692 ;; Auto vars:     Size  Location     Type
  4693 ;;		None
  4694 ;; Return value:  Size  Location     Type
  4695 ;;                  1    wreg      void 
  4696 ;; Registers used:
  4697 ;;		None
  4698 ;; Tracked objects:
  4699 ;;		On entry : 0/0
  4700 ;;		On exit  : 0/0
  4701 ;;		Unchanged: 0/0
  4702 ;; Data sizes:     COMRAM   BANK0   BANK1   BANK2   BANK3   BANK4   BANK5   BANK6   BANK7   BANK8   BANK9  BANK10  BANK1
      +1  BANK12  BANK13  BANK14
  4703 ;;      Params:         0       0       0       0       0       0       0       0       0       0       0       0       
      +0       0       0       0
  4704 ;;      Locals:         0       0       0       0       0       0       0       0       0       0       0       0       
      +0       0       0       0
  4705 ;;      Temps:          0       0       0       0       0       0       0       0       0       0       0       0       
      +0       0       0       0
  4706 ;;      Totals:         0       0       0       0       0       0       0       0       0       0       0       0       
      +0       0       0       0
  4707 ;;Total ram usage:        0 bytes
  4708 ;; Hardware stack levels used: 1
  4709 ;; This function calls:
  4710 ;;		Nothing
  4711 ;; This function is called by:
  4712 ;;		_ECAN_Initialize
  4713 ;;		_ECAN_WAKI_ISR
  4714 ;; This function uses a non-reentrant model
  4715 ;;
  4716                           
  4717                           	psect	text34
  4718   0021FE                     __ptext34:
  4719                           	callstack 0
  4720   0021FE                     _WakeUpDefaultInterruptHandler:
  4721                           	callstack 22
  4722   0021FE  0012               	return		;funcret
  4723   002200                     __end_of_WakeUpDefaultInterruptHandler:
  4724                           	callstack 0
  4725                           
  4726                           	psect	text35
  4727   000000                     __ptext35:
  4728                           	callstack 0
  4729   000000                     
  4730                           	psect	rparam
  4731   000000                     
  4732                           	psect	temp
  4733   00003D                     btemp:
  4734                           	callstack 0
  4735   00003D                     	ds	1
  4736   000000                     int$flags	set	btemp
  4737   000000                     wtemp8	set	btemp+1
  4738   000000                     ttemp5	set	btemp+1
  4739   000000                     ttemp6	set	btemp+4
  4740   000000                     ttemp7	set	btemp+8
  4741                           
  4742                           	psect	idloc
  4743                           
  4744                           ;Config register IDLOC0 @ 0x200000
  4745                           ;	unspecified, using default values
  4746   200000                     	org	2097152
  4747   200000  FF                 	db	255
  4748                           
  4749                           ;Config register IDLOC1 @ 0x200001
  4750                           ;	unspecified, using default values
  4751   200001                     	org	2097153
  4752   200001  FF                 	db	255
  4753                           
  4754                           ;Config register IDLOC2 @ 0x200002
  4755                           ;	unspecified, using default values
  4756   200002                     	org	2097154
  4757   200002  FF                 	db	255
  4758                           
  4759                           ;Config register IDLOC3 @ 0x200003
  4760                           ;	unspecified, using default values
  4761   200003                     	org	2097155
  4762   200003  FF                 	db	255
  4763                           
  4764                           ;Config register IDLOC4 @ 0x200004
  4765                           ;	unspecified, using default values
  4766   200004                     	org	2097156
  4767   200004  FF                 	db	255
  4768                           
  4769                           ;Config register IDLOC5 @ 0x200005
  4770                           ;	unspecified, using default values
  4771   200005                     	org	2097157
  4772   200005  FF                 	db	255
  4773                           
  4774                           ;Config register IDLOC6 @ 0x200006
  4775                           ;	unspecified, using default values
  4776   200006                     	org	2097158
  4777   200006  FF                 	db	255
  4778                           
  4779                           ;Config register IDLOC7 @ 0x200007
  4780                           ;	unspecified, using default values
  4781   200007                     	org	2097159
  4782   200007  FF                 	db	255
  4783                           
  4784                           	psect	config
  4785                           
  4786                           ;Config register CONFIG1L @ 0x300000
  4787                           ;	VREG Sleep Enable bit
  4788                           ;	RETEN = OFF, Ultra low-power regulator is Disabled (Controlled by REGSLP bit)
  4789                           ;	LF-INTOSC Low-power Enable bit
  4790                           ;	INTOSCSEL = HIGH, LF-INTOSC in High-power mode during Sleep
  4791                           ;	SOSC Power Selection and mode Configuration bits
  4792                           ;	SOSCSEL = DIG, Digital (SCLKI) mode
  4793                           ;	Extended Instruction Set
  4794                           ;	XINST = OFF, Disabled
  4795   300000                     	org	3145728
  4796   300000  15                 	db	21
  4797                           
  4798                           ;Config register CONFIG1H @ 0x300001
  4799                           ;	Oscillator
  4800                           ;	FOSC = HS2, HS oscillator (High power, 16 MHz - 25 MHz)
  4801                           ;	PLL x4 Enable bit
  4802                           ;	PLLCFG = OFF, Disabled
  4803                           ;	Fail-Safe Clock Monitor
  4804                           ;	FCMEN = OFF, Disabled
  4805                           ;	Internal External Oscillator Switch Over Mode
  4806                           ;	IESO = OFF, Disabled
  4807   300001                     	org	3145729
  4808   300001  02                 	db	2
  4809                           
  4810                           ;Config register CONFIG2L @ 0x300002
  4811                           ;	Power Up Timer
  4812                           ;	PWRTEN = OFF, Disabled
  4813                           ;	Brown Out Detect
  4814                           ;	BOREN = SBORDIS, Enabled in hardware, SBOREN disabled
  4815                           ;	Brown-out Reset Voltage bits
  4816                           ;	BORV = 3, 1.8V
  4817                           ;	BORMV Power level
  4818                           ;	BORPWR = ZPBORMV, ZPBORMV instead of BORMV is selected
  4819   300002                     	org	3145730
  4820   300002  7F                 	db	127
  4821                           
  4822                           ;Config register CONFIG2H @ 0x300003
  4823                           ;	Watchdog Timer
  4824                           ;	WDTEN = OFF, WDT disabled in hardware; SWDTEN bit disabled
  4825                           ;	Watchdog Postscaler
  4826                           ;	WDTPS = 1048576, 1:1048576
  4827   300003                     	org	3145731
  4828   300003  7C                 	db	124
  4829                           
  4830                           ; Padding undefined space
  4831   300004                     	org	3145732
  4832   300004  FF                 	db	255
  4833                           
  4834                           ;Config register CONFIG3H @ 0x300005
  4835                           ;	ECAN Mux bit
  4836                           ;	CANMX = PORTB, ECAN TX and RX pins are located on RB2 and RB3, respectively
  4837                           ;	MSSP address masking
  4838                           ;	MSSPMSK = MSK7, 7 Bit address masking mode
  4839                           ;	Master Clear Enable
  4840                           ;	MCLRE = ON, MCLR Enabled, RE3 Disabled
  4841   300005                     	org	3145733
  4842   300005  89                 	db	137
  4843                           
  4844                           ;Config register CONFIG4L @ 0x300006
  4845                           ;	Stack Overflow Reset
  4846                           ;	STVREN = ON, Enabled
  4847                           ;	Boot Block Size
  4848                           ;	BBSIZ = BB2K, 2K word Boot Block size
  4849   300006                     	org	3145734
  4850   300006  91                 	db	145
  4851                           
  4852                           ; Padding undefined space
  4853   300007                     	org	3145735
  4854   300007  FF                 	db	255
  4855                           
  4856                           ;Config register CONFIG5L @ 0x300008
  4857                           ;	Code Protect 00800-01FFF
  4858                           ;	CP0 = OFF, Disabled
  4859                           ;	Code Protect 02000-03FFF
  4860                           ;	CP1 = OFF, Disabled
  4861                           ;	Code Protect 04000-05FFF
  4862                           ;	CP2 = OFF, Disabled
  4863                           ;	Code Protect 06000-07FFF
  4864                           ;	CP3 = OFF, Disabled
  4865   300008                     	org	3145736
  4866   300008  0F                 	db	15
  4867                           
  4868                           ;Config register CONFIG5H @ 0x300009
  4869                           ;	Code Protect Boot
  4870                           ;	CPB = OFF, Disabled
  4871                           ;	Data EE Read Protect
  4872                           ;	CPD = OFF, Disabled
  4873   300009                     	org	3145737
  4874   300009  C0                 	db	192
  4875                           
  4876                           ;Config register CONFIG6L @ 0x30000A
  4877                           ;	Table Write Protect 00800-01FFF
  4878                           ;	WRT0 = OFF, Disabled
  4879                           ;	Table Write Protect 02000-03FFF
  4880                           ;	WRT1 = OFF, Disabled
  4881                           ;	Table Write Protect 04000-05FFF
  4882                           ;	WRT2 = OFF, Disabled
  4883                           ;	Table Write Protect 06000-07FFF
  4884                           ;	WRT3 = OFF, Disabled
  4885   30000A                     	org	3145738
  4886   30000A  0F                 	db	15
  4887                           
  4888                           ;Config register CONFIG6H @ 0x30000B
  4889                           ;	Config. Write Protect
  4890                           ;	WRTC = OFF, Disabled
  4891                           ;	Table Write Protect Boot
  4892                           ;	WRTB = OFF, Disabled
  4893                           ;	Data EE Write Protect
  4894                           ;	WRTD = OFF, Disabled
  4895   30000B                     	org	3145739
  4896   30000B  E0                 	db	224
  4897                           
  4898                           ;Config register CONFIG7L @ 0x30000C
  4899                           ;	Table Read Protect 00800-01FFF
  4900                           ;	EBTR0 = OFF, Disabled
  4901                           ;	Table Read Protect 02000-03FFF
  4902                           ;	EBTR1 = OFF, Disabled
  4903                           ;	Table Read Protect 04000-05FFF
  4904                           ;	EBTR2 = OFF, Disabled
  4905                           ;	Table Read Protect 06000-07FFF
  4906                           ;	EBTR3 = OFF, Disabled
  4907   30000C                     	org	3145740
  4908   30000C  0F                 	db	15
  4909                           
  4910                           ;Config register CONFIG7H @ 0x30000D
  4911                           ;	Table Read Protect Boot
  4912                           ;	EBTRB = OFF, Disabled
  4913   30000D                     	org	3145741
  4914   30000D  40                 	db	64
  4915                           tosu	equ	0xFFF
  4916                           tosh	equ	0xFFE
  4917                           tosl	equ	0xFFD
  4918                           stkptr	equ	0xFFC
  4919                           pclatu	equ	0xFFB
  4920                           pclath	equ	0xFFA
  4921                           pcl	equ	0xFF9
  4922                           tblptru	equ	0xFF8
  4923                           tblptrh	equ	0xFF7
  4924                           tblptrl	equ	0xFF6
  4925                           tablat	equ	0xFF5
  4926                           prodh	equ	0xFF4
  4927                           prodl	equ	0xFF3
  4928                           indf0	equ	0xFEF
  4929                           postinc0	equ	0xFEE
  4930                           postdec0	equ	0xFED
  4931                           preinc0	equ	0xFEC
  4932                           plusw0	equ	0xFEB
  4933                           fsr0h	equ	0xFEA
  4934                           fsr0l	equ	0xFE9
  4935                           wreg	equ	0xFE8
  4936                           indf1	equ	0xFE7
  4937                           postinc1	equ	0xFE6
  4938                           postdec1	equ	0xFE5
  4939                           preinc1	equ	0xFE4
  4940                           plusw1	equ	0xFE3
  4941                           fsr1h	equ	0xFE2
  4942                           fsr1l	equ	0xFE1
  4943                           bsr	equ	0xFE0
  4944                           indf2	equ	0xFDF
  4945                           postinc2	equ	0xFDE
  4946                           postdec2	equ	0xFDD
  4947                           preinc2	equ	0xFDC
  4948                           plusw2	equ	0xFDB
  4949                           fsr2h	equ	0xFDA
  4950                           fsr2l	equ	0xFD9
  4951                           status	equ	0xFD8

Data Sizes:
    Strings     13
    Constant    0
    Data        2
    BSS         55
    Persistent  10
    Stack       0

Auto Spaces:
    Space          Size  Autos    Used
    COMRAM           94     37      60
    BANK0           160     33      77
    BANK1           256      0       0
    BANK2           256      0       0
    BANK3           256      0       0
    BANK4           256      0       0
    BANK5           256      0       0
    BANK6           256      0       0
    BANK7           256      0       0
    BANK8           256      0       0
    BANK9           256      0       0
    BANK10          256      0       0
    BANK11          256      0       0
    BANK12          256      0       0
    BANK13          256      0       0
    BANK14           65      0       0

Pointer List with Targets:

    vfpfcnvrt@ap	PTR PTR void  size(2) Largest target is 2
		 -> printf@ap(COMRAM[2]), 

    ADC_InterruptHandler	PTR FTN()void  size(2) Largest target is 1
		 -> Absolute function(), 

    S2322$source	PTR const unsigned char  size(2) Largest target is 0

    fputc@fp...source	PTR const unsigned char  size(2) Largest target is 0

    S2322$buffer	PTR unsigned char  size(2) Largest target is 0

    fputc@fp...buffer	PTR unsigned char  size(2) Largest target is 0

    fputc@fp	PTR struct _IO_FILE size(2) Largest target is 0
		 -> NULL(NULL[0]), 

    vfprintf@ap	PTR PTR void  size(2) Largest target is 2
		 -> printf@ap(COMRAM[2]), 

    vfprintf@fp	PTR struct _IO_FILE size(2) Largest target is 0
		 -> NULL(NULL[0]), 

    vfprintf@fmt	PTR const unsigned char  size(2) Largest target is 13
		 -> STR_1(CODE[13]), 

    vfprintf@cfmt	PTR unsigned char  size(2) Largest target is 13
		 -> STR_1(CODE[13]), 

    vfpfcnvrt@fp	PTR struct _IO_FILE size(2) Largest target is 0
		 -> NULL(NULL[0]), 

    vfpfcnvrt@fmt	PTR PTR unsigned char  size(2) Largest target is 2
		 -> vfprintf@cfmt(COMRAM[2]), 

    S2357$vp	PTR void  size(2) Largest target is 0

    convarg.vp	PTR void  size(2) Largest target is 0

    printf@fmt	PTR const unsigned char  size(2) Largest target is 13
		 -> STR_1(CODE[13]), 

    printf@ap	PTR void [1] size(2) Largest target is 2
		 -> ?_printf(COMRAM[2]), 

    EUSART1_SetErrorHandler@interruptHandler	PTR FTN()void  size(2) Largest target is 1
		 -> EUSART1_DefaultErrorHandler(), 

    EUSART1_ErrorHandler	PTR FTN()void  size(2) Largest target is 1
		 -> EUSART1_DefaultErrorHandler(), Absolute function(), 

    EUSART1_SetOverrunErrorHandler@interruptHandler	PTR FTN()void  size(2) Largest target is 1
		 -> EUSART1_DefaultOverrunErrorHandler(), 

    EUSART1_OverrunErrorHandler	PTR FTN()void  size(2) Largest target is 1
		 -> EUSART1_DefaultOverrunErrorHandler(), Absolute function(), 

    EUSART1_SetFramingErrorHandler@interruptHandler	PTR FTN()void  size(2) Largest target is 1
		 -> EUSART1_DefaultFramingErrorHandler(), 

    EUSART1_FramingErrorHandler	PTR FTN()void  size(2) Largest target is 1
		 -> EUSART1_DefaultFramingErrorHandler(), Absolute function(), 

    TMR1_SetInterruptHandler@InterruptHandler	PTR FTN()void  size(2) Largest target is 1
		 -> timer_1s(), TMR1_DefaultInterruptHandler(), 

    TMR1_InterruptHandler	PTR FTN()void  size(2) Largest target is 1
		 -> timer_1s(), Absolute function(), TMR1_DefaultInterruptHandler(), 

    ECAN_SetWakeUpInterruptHandler@handler	PTR FTN()void  size(2) Largest target is 1
		 -> WakeUpDefaultInterruptHandler(), 

    WakeUpInterruptHandler	PTR FTN()void  size(2) Largest target is 1
		 -> Absolute function(), WakeUpDefaultInterruptHandler(), 

    convertCANid2Reg@passedInSIDH	PTR unsigned char  size(2) Largest target is 1
		 -> CAN_transmit@tempSIDH(COMRAM[1]), 

    convertCANid2Reg@passedInSIDL	PTR unsigned char  size(2) Largest target is 1
		 -> CAN_transmit@tempSIDL(COMRAM[1]), 

    convertCANid2Reg@passedInEIDH	PTR unsigned char  size(2) Largest target is 1
		 -> CAN_transmit@tempEIDH(COMRAM[1]), 

    convertCANid2Reg@passedInEIDL	PTR unsigned char  size(2) Largest target is 1
		 -> CAN_transmit@tempEIDL(COMRAM[1]), 

    CAN_receive@tempCanMsg	PTR struct . size(2) Largest target is 14
		 -> main@rxCan(BANK0[14]), 

    CAN_transmit@tempCanMsg	PTR struct . size(2) Largest target is 14
		 -> main@txCan(BANK0[14]), 


Critical Paths under _main in COMRAM

    _main->_printf
    _printf->_vfprintf
    _vfprintf->_vfpfcnvrt
    _vfpfcnvrt->_fputc
    _fputc->_putch
    _putch->_EUSART1_Write
    _SYSTEM_Initialize->_TMR1_Initialize
    _TMR1_Initialize->_TMR1_SetInterruptHandler
    _EUSART1_Initialize->_EUSART1_SetErrorHandler
    _EUSART1_Initialize->_EUSART1_SetFramingErrorHandler
    _EUSART1_Initialize->_EUSART1_SetOverrunErrorHandler
    _ECAN_Initialize->_ECAN_SetWakeUpInterruptHandler
    _CAN_transmit->_convertCANid2Reg
    _CAN_receive->_convertReg2ExtendedCANid

Critical Paths under _INTERRUPT_InterruptManager in COMRAM

    _TMR1_ISR->_TMR1_WriteTimer

Critical Paths under _main in BANK0

    None.

Critical Paths under _INTERRUPT_InterruptManager in BANK0

    None.

Critical Paths under _main in BANK1

    None.

Critical Paths under _INTERRUPT_InterruptManager in BANK1

    None.

Critical Paths under _main in BANK2

    None.

Critical Paths under _INTERRUPT_InterruptManager in BANK2

    None.

Critical Paths under _main in BANK3

    None.

Critical Paths under _INTERRUPT_InterruptManager in BANK3

    None.

Critical Paths under _main in BANK4

    None.

Critical Paths under _INTERRUPT_InterruptManager in BANK4

    None.

Critical Paths under _main in BANK5

    None.

Critical Paths under _INTERRUPT_InterruptManager in BANK5

    None.

Critical Paths under _main in BANK6

    None.

Critical Paths under _INTERRUPT_InterruptManager in BANK6

    None.

Critical Paths under _main in BANK7

    None.

Critical Paths under _INTERRUPT_InterruptManager in BANK7

    None.

Critical Paths under _main in BANK8

    None.

Critical Paths under _INTERRUPT_InterruptManager in BANK8

    None.

Critical Paths under _main in BANK9

    None.

Critical Paths under _INTERRUPT_InterruptManager in BANK9

    None.

Critical Paths under _main in BANK10

    None.

Critical Paths under _INTERRUPT_InterruptManager in BANK10

    None.

Critical Paths under _main in BANK11

    None.

Critical Paths under _INTERRUPT_InterruptManager in BANK11

    None.

Critical Paths under _main in BANK12

    None.

Critical Paths under _INTERRUPT_InterruptManager in BANK12

    None.

Critical Paths under _main in BANK13

    None.

Critical Paths under _INTERRUPT_InterruptManager in BANK13

    None.

Critical Paths under _main in BANK14

    None.

Critical Paths under _INTERRUPT_InterruptManager in BANK14

    None.

Call Graph Tables:

 ---------------------------------------------------------------------------------
 (Depth) Function   	        Calls       Base Space   Used Autos Params    Refs
 ---------------------------------------------------------------------------------
 (0) _main                                                37    37      0   11203
                                             33 COMRAM     4     4      0
                                              0 BANK0     33    33      0
                  _ADC_GetConversion
                        _CAN_receive
                       _CAN_transmit
                      _EUSART1_Write
                  _SYSTEM_Initialize
           _TMR1_SetInterruptHandler
                             ___lmul
                             _printf
 ---------------------------------------------------------------------------------
 (1) _printf                                               6     4      2    1819
                                             29 COMRAM     4     2      2
                           _vfprintf
 ---------------------------------------------------------------------------------
 (2) _vfprintf                                             8     2      6    1654
                                             21 COMRAM     8     2      6
                          _vfpfcnvrt
 ---------------------------------------------------------------------------------
 (3) _vfpfcnvrt                                           22    16      6    1202
                                             15 COMRAM     6     0      6
                              _fputc
 ---------------------------------------------------------------------------------
 (4) _fputc                                                9     5      4     746
                                              6 COMRAM     9     5      4
                              _putch
 ---------------------------------------------------------------------------------
 (5) _putch                                                1     1      0      62
                                              5 COMRAM     1     1      0
                      _EUSART1_Write
 ---------------------------------------------------------------------------------
 (6) _EUSART1_Write                                        1     1      0      31
                                              4 COMRAM     1     1      0
 ---------------------------------------------------------------------------------
 (1) ___lmul                                              12     4      8     456
                                              4 COMRAM    12     4      8
 ---------------------------------------------------------------------------------
 (1) _SYSTEM_Initialize                                    0     0      0     695
                     _ADC_Initialize
                    _ECAN_Initialize
                 _EUSART1_Initialize
               _INTERRUPT_Initialize
              _OSCILLATOR_Initialize
             _PIN_MANAGER_Initialize
                    _TMR1_Initialize
 ---------------------------------------------------------------------------------
 (2) _TMR1_Initialize                                      2     2      0     211
                                              6 COMRAM     2     2      0
           _TMR1_SetInterruptHandler
 ---------------------------------------------------------------------------------
 (1) _TMR1_SetInterruptHandler                             2     0      2     211
                                              4 COMRAM     2     0      2
 ---------------------------------------------------------------------------------
 (2) _PIN_MANAGER_Initialize                               0     0      0       0
 ---------------------------------------------------------------------------------
 (2) _OSCILLATOR_Initialize                                0     0      0       0
 ---------------------------------------------------------------------------------
 (2) _INTERRUPT_Initialize                                 0     0      0       0
 ---------------------------------------------------------------------------------
 (2) _EUSART1_Initialize                                   0     0      0     363
            _EUSART1_SetErrorHandler
     _EUSART1_SetFramingErrorHandler
     _EUSART1_SetOverrunErrorHandler
 ---------------------------------------------------------------------------------
 (3) _EUSART1_SetOverrunErrorHandler                       2     0      2     121
                                              4 COMRAM     2     0      2
 ---------------------------------------------------------------------------------
 (3) _EUSART1_SetFramingErrorHandler                       2     0      2     121
                                              4 COMRAM     2     0      2
 ---------------------------------------------------------------------------------
 (3) _EUSART1_SetErrorHandler                              2     0      2     121
                                              4 COMRAM     2     0      2
 ---------------------------------------------------------------------------------
 (2) _ECAN_Initialize                                      1     1      0     121
                                              6 COMRAM     1     1      0
     _ECAN_SetWakeUpInterruptHandler
 ---------------------------------------------------------------------------------
 (3) _ECAN_SetWakeUpInterruptHandler                       2     0      2     121
                                              4 COMRAM     2     0      2
 ---------------------------------------------------------------------------------
 (2) _ADC_Initialize                                       0     0      0       0
 ---------------------------------------------------------------------------------
 (1) _CAN_transmit                                         7     5      2    4451
                                             22 COMRAM     6     4      2
                   _convertCANid2Reg
 ---------------------------------------------------------------------------------
 (2) _convertCANid2Reg                                    18     5     13    2425
                                              4 COMRAM    18     5     13
 ---------------------------------------------------------------------------------
 (1) _CAN_receive                                          3     1      2    2358
                                             23 COMRAM     3     1      2
           _convertReg2ExtendedCANid
           _convertReg2StandardCANid
 ---------------------------------------------------------------------------------
 (2) _convertReg2StandardCANid                            15    11      4     347
                                              4 COMRAM    15    11      4
 ---------------------------------------------------------------------------------
 (2) _convertReg2ExtendedCANid                            19    15      4    1075
                                              4 COMRAM    19    15      4
 ---------------------------------------------------------------------------------
 (1) _ADC_GetConversion                                    5     3      2      31
                                              4 COMRAM     5     3      2
 ---------------------------------------------------------------------------------
 Estimated maximum stack depth 6
 ---------------------------------------------------------------------------------
 (Depth) Function   	        Calls       Base Space   Used Autos Params    Refs
 ---------------------------------------------------------------------------------
 (7) _INTERRUPT_InterruptManager                           2     2      0     240
                                              2 COMRAM     2     2      0
                      _ECAN_WAKI_ISR
                           _TMR1_ISR
 ---------------------------------------------------------------------------------
 (8) _TMR1_ISR                                             0     0      0     240
                      _TMR1_CallBack
                    _TMR1_WriteTimer
 ---------------------------------------------------------------------------------
 (9) _TMR1_WriteTimer                                      2     0      2     240
                                              0 COMRAM     2     0      2
 ---------------------------------------------------------------------------------
 (9) _TMR1_CallBack                                        0     0      0       0
                   Absolute function *
       _TMR1_DefaultInterruptHandler *
                           _timer_1s *
 ---------------------------------------------------------------------------------
 (10) _timer_1s                                            0     0      0       0
 ---------------------------------------------------------------------------------
 (10) _TMR1_DefaultInterruptHandler                        0     0      0       0
 ---------------------------------------------------------------------------------
 (8) _ECAN_WAKI_ISR                                        0     0      0       0
                   Absolute function *
      _WakeUpDefaultInterruptHandler *
 ---------------------------------------------------------------------------------
 (9) _WakeUpDefaultInterruptHandler                        0     0      0       0
 ---------------------------------------------------------------------------------
 (10) Absolute function(Fake)                              0     0      0       0
 ---------------------------------------------------------------------------------
 Estimated maximum stack depth 10
 ---------------------------------------------------------------------------------

 Call Graph Graphs:

 _main (ROOT)
   _ADC_GetConversion
   _CAN_receive
     _convertReg2ExtendedCANid
     _convertReg2StandardCANid
   _CAN_transmit
     _convertCANid2Reg
   _EUSART1_Write
   _SYSTEM_Initialize
     _ADC_Initialize
     _ECAN_Initialize
       _ECAN_SetWakeUpInterruptHandler
     _EUSART1_Initialize
       _EUSART1_SetErrorHandler
       _EUSART1_SetFramingErrorHandler
       _EUSART1_SetOverrunErrorHandler
     _INTERRUPT_Initialize
     _OSCILLATOR_Initialize
     _PIN_MANAGER_Initialize
     _TMR1_Initialize
       _TMR1_SetInterruptHandler
   _TMR1_SetInterruptHandler
   ___lmul
   _printf
     _vfprintf
       _vfpfcnvrt
         _fputc
           _putch
             _EUSART1_Write

 _INTERRUPT_InterruptManager (ROOT)
   _ECAN_WAKI_ISR
     Absolute function(Fake) *
     _WakeUpDefaultInterruptHandler *
   _TMR1_ISR
     _TMR1_CallBack
       Absolute function(Fake) *
       _TMR1_DefaultInterruptHandler *
       _timer_1s *
     _TMR1_WriteTimer

 Address spaces:
Name               Size   Autos  Total    Cost      Usage
BIGRAM             E40      0       0      56        0.0%
EEDATA             400      0       0       0        0.0%
BITBANK13          100      0       0      53        0.0%
BANK13             100      0       0      23        0.0%
BITBANK12          100      0       0      21        0.0%
BANK12             100      0       0      22        0.0%
BITBANK11          100      0       0      52        0.0%
BANK11             100      0       0      20        0.0%
BITBANK10          100      0       0      51        0.0%
BANK10             100      0       0      19        0.0%
BITBANK9           100      0       0      50        0.0%
BANK9              100      0       0      18        0.0%
BITBANK8           100      0       0      49        0.0%
BANK8              100      0       0      17        0.0%
BITBANK7           100      0       0      48        0.0%
BANK7              100      0       0      16        0.0%
BITBANK6           100      0       0      47        0.0%
BANK6              100      0       0      15        0.0%
BITBANK5           100      0       0      46        0.0%
BANK5              100      0       0      14        0.0%
BITBANK4           100      0       0      12        0.0%
BANK4              100      0       0      13        0.0%
BITBANK3           100      0       0      10        0.0%
BANK3              100      0       0      11        0.0%
BITBANK2           100      0       0       8        0.0%
BANK2              100      0       0       9        0.0%
BITBANK1           100      0       0       6        0.0%
BANK1              100      0       0       7        0.0%
BITBANK0            A0      0       0       4        0.0%
BANK0               A0     21      4D       5       48.1%
BITBIGSFRllllll     9A      0       0      43        0.0%
BITCOMRAM           5E      0       0       0        0.0%
COMRAM              5E     25      3C       1       63.8%
BITBANK14           41      0       0      54        0.0%
BANK14              41      0       0      55        0.0%
BITBIGSFRllllhh     1D      0       0      39        0.0%
BITBIGSFRhl         1D      0       0      25        0.0%
BITBIGSFRlhlhhh     10      0       0      28        0.0%
BITBIGSFRhh          D      0       0      24        0.0%
BITBIGSFRlllhhh      8      0       0      34        0.0%
BITBIGSFRlhlhhh      8      0       0      27        0.0%
BITBIGSFRlhlhll      8      0       0      30        0.0%
BITBIGSFRllhl        6      0       0      33        0.0%
BITBIGSFRlllhhl      5      0       0      36        0.0%
BITBIGSFRllhh        5      0       0      32        0.0%
BITBIGSFRlllhlh      3      0       0      37        0.0%
BITBIGSFRlllhhh      2      0       0      35        0.0%
BITBIGSFRlhlhlh      2      0       0      29        0.0%
BITBIGSFRllllhh      2      0       0      42        0.0%
BITBIGSFRllllhh      2      0       0      41        0.0%
BITBIGSFRllllhh      2      0       0      40        0.0%
BITBIGSFRlllhll      2      0       0      38        0.0%
BITBIGSFRllllll      2      0       0      44        0.0%
BITBIGSFRlhh         1      0       0      26        0.0%
BITBIGSFRlhll        1      0       0      31        0.0%
BIGSFR               0      0       0     200        0.0%
BITSFR_2             0      0       0     200        0.0%
SFR_2                0      0       0     200        0.0%
BITSFR_1             0      0       0     200        0.0%
SFR_1                0      0       0     200        0.0%
BITSFR               0      0       0     200        0.0%
SFR                  0      0       0     200        0.0%
STACK                0      0       0       2        0.0%
NULL                 0      0       0       0        0.0%
ABS                  0      0      89      45        0.0%
DATA                 0      0      89       3        0.0%
CODE                 0      0       0       0        0.0%


Microchip Technology PIC18 Macro Assembler V2.40 build 20220703182018 
Symbol Table                                                                                   Mon Sep 25 13:38:59 2023

                                               l25 2156                                                 l28 21B2  
                                               l53 20EA                                                 l75 21F8  
                                              l332 1D26                                                l341 1546  
                                              l501 1FE8                                                l342 174A  
                                              l343 1648                                                l346 174A  
                                              l419 205A                                                l356 199E  
                                              l349 1876                                                l525 2178  
                                              l534 21BC                                                l455 21C6  
                                              l376 1C4C                                                l384 1B12  
                                              l552 21E4                                                l528 218A  
                                              l546 21DA                                                l642 11B2  
                                              l379 1EB4                                                l571 21A0  
                                              l387 21EE                                                l708 1F0E  
                                              l549 21D0                                                l709 1F1E  
                                              l583 2002                                                l672 142A  
                                              l664 1218                                                l586 2022  
                                              l682 137C                                                l674 1324  
                                              l658 11D8                                                l684 137E  
                                              l676 1326                                        fp__timer_1s 0000  
            ECAN_SetWakeUpInterruptHandler@handler 0005                                    _timer1ReloadVal 0039  
                                              tosl 000FFD                                                wreg 000FE8  
                                       _TXSTA1bits 000FAC                         ??_convertReg2StandardCANid 0009  
                                             l3001 16AE                                               l1401 1E3C  
                                             l3011 16F4                                               l3003 16B2  
                                             l3101 1FFE                                               l3021 1744  
                                             l3013 1704                                               l3005 16C4  
                                             l3103 2000                                               l3031 175E  
                                             l3015 1714                                               l3007 16D4  
                                             l1407 1F6C                                               l3111 211C  
                                             l3105 2010                                               l3041 17DC  
                                             l3033 176C                                               l3017 1724  
                                             l3009 16E4                                               l3121 1EE4  
                                             l3201 11DA                                               l3051 182C  
                                             l3043 17EC                                               l3035 1778  
                                             l3027 174C                                               l3019 1734  
                                             l3123 1EEE                                               l3115 1EB6  
                                             l1419 1DBC                                               l3211 1276  
                                             l3203 11EE                                               l3131 1024  
                                             l3061 186E                                               l3053 183C  
                                             l3045 17FC                                               l3037 17AA  
                                             l3029 1750                                               l3117 1EC6  
                                             l3109 2114                                               l3213 12AC  
                                             l3221 12C4                                               l3205 121A  
                                             l3141 1052                                               l3133 1028  
                                             l3125 1010                                               l3071 18DE  
                                             l3063 1886                                               l3055 184C  
                                             l3047 180C                                               l3039 17B6  
                                             l3119 1ED4                                               l1375 2138  
                                             l3231 1318                                               l3223 12D6  
                                             l3215 12B0                                               l3207 122A  
                                             l3151 106C                                               l3143 1056  
                                             l3135 103A                                               l3127 1020  
                                             l3081 1944                                               l3073 1904  
                                             l3065 1894                                               l3057 185C  
                                             l3049 181C                                               l3241 1370  
                                             l3233 1328                                               l3225 12E8  
                                             l3217 12B4                                               l3209 122E  
                                             l3161 10A2                                               l3153 1072  
                                             l3145 105A                                               l3137 103E  
                                             l3129 1022                                               l3091 1994  
                                             l3083 1954                                               l3075 1914  
                                             l3067 18A0                                               l3059 186C  
                                             l3251 13A2                                               l3235 133A  
                                             l3227 12FA                                               l3219 12C0  
                                             l3171 10FE                                               l3163 10BE  
                                             l3155 1078                                               l3147 1060  
                                             l3139 1042                                               l3085 1964  
                                             l3077 1924                                               l3069 18D2  
                                             l3261 13E0                                               l3253 13A6  
                                             l3245 1380                                               l3237 134C  
                                             l3229 1306                                               l3181 115A  
                                             l3173 1118                                               l3165 10D6  
                                             l3157 107E                                               l3149 1066  
                                             l3087 1974                                               l3079 1934  
                                             l3095 199C                                               l3255 13B8  
                                             l3247 1390                                               l3239 135E  
                                             l3191 119A                                               l3183 115E  
                                             l3175 1128                                               l3167 10E6  
                                             l3159 108A                                               l3089 1984  
                                             l2801 2056                                               l3257 13CA  
                                             l3249 1396                                               l3193 11A6  
                                             l3185 116E                                               l3177 1134  
                                             l3169 10F2                                               l3099 1FEC  
                                             l2803 218C                                               l2811 1FD8  
                                             l3267 13F6                                               l3187 117A  
                                             l3179 1140                                               l3195 11B2  
                                             l2821 1CFC                                               l2813 1FE4  
                                             l2805 1FAC                                               l2741 1D28  
                                             l2901 1F20                                               l3293 140C  
                                             l3197 11C0                                               l3189 118A  
                                             l2831 19A0                                               l2823 1D08  
                                             l2815 1C4E                                               l2807 1FC0  
                                             l2911 213A                                               l2735 2178  
                                             l2751 1DAA                                               l2743 1D3A  
                                             l2903 1F2C                                               l3199 11CC  
                                             l2841 1A26                                               l2833 19A0  
                                             l2825 1D0A                                               l2817 1C52  
                                             l2761 21C8                                               l2809 1FCC  
                                             l2921 214E                                               l2913 213E  
                                             l2737 2186                                               l2745 1D4C  
                                             l2905 1F48                                               l2851 1A7A  
                                             l2843 1A2C                                               l2835 19B2  
                                             l2931 149E                                               l2755 21E6  
                                             l2827 1D0C                                               l2819 1C66  
                                             l2763 21DC                                               l2923 2152  
                                             l2915 2142                                               l2739 21B6  
                                             l2747 1D56                                               l2771 1DFE  
                                             l2907 1F64                                               l2853 1AA8  
                                             l2845 1A5E                                               l2837 19BE  
                                             l2941 14C0                                               l2933 14A2  
                                             l2925 1432                                               l2829 1D10  
                                             l2757 21BE                                               l2917 2146  
                                             l2749 1D74                                               l2773 1E02  
                                             l2765 1DBE                                               l2871 1B34  
                                             l2847 1A66                                               l2839 19EC  
                                             l2855 1AB8                                               l2951 1510  
                                             l2943 14D0                                               l2935 14A6  
                                             l2927 1442                                               l2759 21D2  
                                             l2783 21F6                                               l2791 2024  
                                             l2919 214A                                               l2767 1DE2  
                                             l2881 1BF6                                               l2873 1B5E  
                                             l2865 1B16                                               l2857 1AD0  
                                             l2849 1A6C                                               l2961 1554  
                                             l2953 1520                                               l2945 14E0  
                                             l2937 14AA                                               l2929 1452  
                                             l2785 20C2                                               l2793 2030  
                                             l2769 1DF0                                               l2777 1E14  
                                             l2883 1C2C                                               l2875 1B76  
                                             l2867 1B26                                               l2891 1E40  
                                             l2859 1B02                                               l2971 15B0  
                                             l2963 15A0                                               l2955 1530  
                                             l2947 14F0                                               l2939 14AE  
                                             l2787 20E8                                               l2795 2032  
                                             l2885 1C3C                                               l2877 1BA8  
                                             l2869 1B2C                                               l2893 1E6A  
                                             l2981 1602                                               l2973 15C2  
                                             l2965 15A4                                               l2957 1540  
                                             l2949 1500                                               l2789 21A2  
                                             l2797 2048                                               l2879 1BDE  
                                             l2895 1E94                                               l2983 1612  
                                             l2975 15D2                                               l2967 15A8  
                                             l2959 1542                                               l2799 204A  
                                             l2897 1EA4                                               l2889 1E40  
                                             l2993 1656                                               l2985 1622  
                                             l2977 15E2                                               l2969 15AC  
                                             l2995 16A2                                               l2987 1632  
                                             l2979 15F2                                               l2997 16A6  
                                             l2989 1642                                               l2999 16AA  
                                             STR_1 1001                                               u1400 19B2  
                                             u1320 2186                                               u1401 19AE  
                                             u1321 2182                                               u1330 1D3A  
                                             u1331 1D36                                               u1500 176C  
                                             u1340 1D4C                                               u1501 1768  
                                             u1341 1D48                                               _LATA 000F89  
                                             u1510 1886                                               u1350 1D74  
                                             _LATB 000F8A                                               u1511 1882  
                                             u1415 1A3E                                               u1351 1D70  
                                             _LATC 000F8B                                               u1520 1894  
                                             u1360 1DAA                                               u1600 1128  
                                             u1521 1890                                               u1425 1AE2  
                                             u1361 1DA6                                               u1601 1124  
                                             u1530 2010                                               u1370 1DE2  
                                             u1450 1F64                                               u1610 115A  
                                             u1531 200C                                               u1435 1B88  
                                             u1371 1DDE                                               u1451 1F60  
                                             u1611 1156                                               u1460 1452  
                                             u1380 1C66                                               u1540 1ED4  
                                             u1700 12D6                                               u1620 116E  
                                             u1445 1E72                                               u1461 144E  
                                             u1381 1C62                                               u1541 1ED0  
                                             u1701 12D2                                               u1621 116A  
                                             u1470 1554                                               u1390 1D26  
                                             u1550 1F0E                                               u1710 12E8  
                                             u1630 118A                                               u1471 1550  
                                             u1391 1D22                                               u1551 1F0A  
                                             u1711 12E4                                               u1631 1186  
                                             u1480 1656                                               u1800 13CA  
                                             u1720 12FA                                               u1640 119A  
                                             u1560 10BE                                               u1481 1652  
                                             u1801 13C6                                               u1721 12F6  
                                             u1641 1196                                               u1561 10BA  
                                             u1490 175E                                               u1810 13DC  
                                             u1730 1318                                               u1650 11C0  
                                             u1570 10D6                                               u1491 175A  
                                             u1811 13D8                                               u1731 1314  
                                             u1651 11BC                                               u1571 10D2  
                                             u1820 13F2                                               u1740 133A  
                                             u1660 11EE                                               u1580 10E6  
                                             u1821 13EE                                               u1741 1336  
                                             u1661 11EA                                               u1581 10E2  
                                             u1750 134C                                               u1670 11FE  
                                             u1590 1118                                               u1751 1348  
                                             u1671 11F8                                               u1591 1114  
                                             u1760 135E                                               u1680 122A  
                                             u1761 135A                                               u1681 1226  
                                             u1770 1370                                               u1690 1296  
                                             u1771 136C                                               u1780 1390  
                                             u1676 1200                                               u1781 138C  
                                             u1837 1094                                               u1790 13B8  
                                             u1791 13B4                                               u1695 128C  
                                             i2l81 0044                                               i2l82 0068  
                                             i2l86 0068                                               _WPUB 000F5B  
                                    _EUSART1_Write 2176                                               _dbuf 0060  
                                             _main 1010                                               _etat 003B  
                     convertCANid2Reg@passedInEIDH 000A                       convertCANid2Reg@passedInEIDL 000C  
                                             _prec 0082                                               fsr1h 000FE2  
                                             fsr2h 000FDA                                               indf2 000FDF  
                                             fsr1l 000FE1                                               fsr2l 000FD9  
                                             btemp 003D                       convertCANid2Reg@passedInSIDH 000E  
                     convertCANid2Reg@passedInSIDL 0010                                               start 0074  
                       ??_TMR1_SetInterruptHandler 0007                                       ___param_bank 000000  
                                     main@batterie 0084                      __end_of_OSCILLATOR_Initialize 21B4  
                                            ?_main 0001                                              _T1CON 000FCD  
                                            i2l323 21FE                                              i2l433 2112  
                                            i2l452 20C0                                              i2l390 2174  
                                            i2l632 21F4                                              i2l448 2090  
                                            i2l458 21FC                                       vfpfcnvrt@fmt 0012  
                                            _TMR1H 000FCF                                              _TMR1L 000FCE  
                                            _TRISA 000F92                                              _TRISB 000F93  
                                            _TRISC 000F94                                ___lmul@multiplicand 0009  
                            CAN_receive@tempCanMsg 0018                                   __end_of_TMR1_ISR 2092  
                             __end_of_CAN_transmit 174C                                              _flags 0034  
                                            _fputc 1D28                                              _width 0080  
                                            _putch 21B4                                     ?_EUSART1_Write 0001  
                          __end_of_TMR1_Initialize 205C                                              pclath 000FFA  
                                            pclatu 000FFB                                              tablat 000FF5  
                                            ttemp5 003E                                              ttemp6 0041  
                                            ttemp7 0045                convertReg2ExtendedCANid@ConvertedID 0014  
                                            status 000FD8                                              wtemp8 003E  
                             CAN_transmit@tempEIDH 0019                               CAN_transmit@tempEIDL 001A  
                             CAN_transmit@tempSIDH 001B                               CAN_transmit@tempSIDL 001C  
               _EUSART1_DefaultFramingErrorHandler 000000                                    _TMR1_WriteTimer 20EC  
                                  __initialization 1F6E                         __end_of_EUSART1_Initialize 1FEA  
                                     __end_of_main 1432                        ?_INTERRUPT_InterruptManager 0001  
                                           ??_main 0022                                      __activetblptr 000002  
                  ??_WakeUpDefaultInterruptHandler 0001                                  ??_ECAN_Initialize 0007  
                                           _ADCON0 000FC2                                             _ADCON1 000FC1  
                                           _ADCON2 000FC0                                             _CANCON 000F6F  
                                           ?_fputc 0007                                             _ADRESH 000FC4  
                                           _ADRESL 000FC3                                             _ANCON0 000F5D  
                                           _ANCON1 000F5C                                             _CIOCON 000F70  
                                           ?_putch 0001                                             _T1GCON 000FAA  
                          TMR1_WriteTimer@timerVal 0001                                             i2l2301 20EC  
                                           i2l2303 20FA                                             i2l2311 210A  
                                           i2l2313 210E                                             i2l2305 20FC  
                                           i2l2315 2092                                             i2l2307 2100  
                                           i2l2173 21F0                                             i2l2317 20A6  
                                           i2l2309 2104                                             i2l2351 2088  
                                           i2l2343 205C                                             i2l1641 2172  
                                           i2l2345 205E                                             i2l2347 206A  
                                           i2l2349 2084                                             i2l1639 2158  
                                           i2l2561 0052                                             i2l2553 0012  
                                           i2l2563 0060                                             i2l2555 0020  
                                           i2l2557 002E                                             i2l2559 003C  
                                           _RCREG1 000FAE                                             _RCSTA1 000FAB  
                                           _OSCCON 000FD3                                             _RXB0D0 000F66  
                                           _RXB0D1 000F67                                             _RXB0D2 000F68  
                                           _RXB0D3 000F69                                             _RXB1D0 000F36  
                                           _RXB0D4 000F6A                                             _RXB1D1 000F37  
                                           _RXB0D5 000F6B                                             _RXB1D2 000F38  
                                           _RXB0D6 000F6C                                             _RXB1D3 000F39  
                                           _RXB0D7 000F6D                                             _RXB1D4 000F3A  
                                           _RXB1D5 000F3B                                             _RXB1D6 000F3C  
                                           _RXB1D7 000F3D                                             _SPBRG1 000FAF  
                                           _TXB0D0 000F26                                             _TXB0D1 000F27  
                                           _TXB0D2 000F28                                             _TXB0D3 000F29  
                                           _TXB1D0 000F16                                             _TXB0D4 000F2A  
                                           _TXB1D1 000F17                                             _TXB0D5 000F2B  
                                           _TXB1D2 000F18                                             _TXB0D6 000F2C  
                                           _TXB1D3 000F19                                             _TXB0D7 000F2D  
                                           _TXB2D0 000F06                                             _TXB1D4 000F1A  
                                           _TXB2D1 000F07                                             _TXB1D5 000F1B  
                                           _TXB2D2 000F08                                             _TXB1D6 000F1C  
                                           _TXB2D3 000F09                                             _TXB1D7 000F1D  
                                           _TXB2D4 000F0A                                             _TXB2D5 000F0B  
                                           _TXB2D6 000F0C                                             _TXB2D7 000F0D  
                                           _TXREG1 000FAD                                             _TXSTA1 000FAC  
             __end_of_TMR1_DefaultInterruptHandler 21FE                       _TMR1_DefaultInterruptHandler 21FC  
                                     vfprintf@cfmt 001C                                             _Switch 002C  
                                           ___lmul 1EB6                           ?_EUSART1_SetErrorHandler 0005  
                                           clear_0 1F8C                                             clear_1 1F98  
                                           isa$std 000001                                             _printf 2114  
                 ??_EUSART1_SetOverrunErrorHandler 0007                    ?_EUSART1_SetOverrunErrorHandler 0005  
                                           fputc@c 0007                                       __pdataCOMRAM 003B  
                                 __end_of_timer_1s 21F6                                       __mediumconst 0000  
                 __end_of_convertReg2StandardCANid 1EB6                                             tblptrh 000FF7  
                                           tblptrl 000FF6                                             tblptru 000FF8  
                                       _Protection 002A                           ADC_GetConversion@channel 0009  
                                 __end_of_vfprintf 1F6E                                    ??_EUSART1_Write 0005  
         TMR1_SetInterruptHandler@InterruptHandler 0005                            __end_of_TMR1_WriteTimer 2114  
                            __end_of_TMR1_CallBack 20C2                                   ?_TMR1_Initialize 0001  
                                _SYSTEM_Initialize 213A                                         __accesstop 0060  
                          __end_of__initialization 1F9E                                 ?_SYSTEM_Initialize 0001  
                         _convertReg2ExtendedCANid 1B14                             CAN_receive@returnValue 001A  
                                    ___rparam_used 000001                                     __pcstackCOMRAM 0001  
                              ??_SYSTEM_Initialize 0009                                          ?_TMR1_ISR 0001  
                  fp__TMR1_DefaultInterruptHandler 0000                      ?_TMR1_DefaultInterruptHandler 0001  
                                    __end_of_fputc 1DBE                                      __end_of_putch 21BE  
                                    _ECAN_WAKI_ISR 2158              convertReg2StandardCANid@tempRXBn_SIDH 000B  
            convertReg2StandardCANid@tempRXBn_SIDL 0005                                            ??_fputc 000B  
                        __end_of_SYSTEM_Initialize 2158                                            ??_putch 0006  
                                       __pbssBANK0 0060              __end_of_WakeUpDefaultInterruptHandler 2200  
                    _WakeUpDefaultInterruptHandler 21FE                                         _charge_LSB 0036  
                                       _charge_MSB 0035                                         __pnvCOMRAM 0039  
                  __end_of_EUSART1_SetErrorHandler 21E6                                            ?___lmul 0005  
                                     _CAN_transmit 1432                                         ??_TMR1_ISR 0003  
                                          _ECANCON 000F72                                     ___lmul@product 000D  
                                          _CANSTAT 000F6E                   ??_ECAN_SetWakeUpInterruptHandler 0007  
                  ?_ECAN_SetWakeUpInterruptHandler 0005                                            ?_printf 001E  
                                          _BRGCON1 000E43                                            _BRGCON2 000E44  
                                          _BRGCON3 000E45             __end_of_EUSART1_SetFramingErrorHandler 21DC  
                   _EUSART1_SetFramingErrorHandler 21D2                                            _REFOCON 000F9A  
                                          _OSCCON2 000FD2                                     ?_ECAN_WAKI_ISR 0001  
                                          _RXB0DLC 000F65                                            i2u18_48 215E  
                                          i2u18_49 2172                                            _RXB1DLC 000F35  
                                          _RXB0CON 000F60                                            _OSCTUNE 000F9B  
                                          _SPBRGH1 000F7D                                            i2u85_40 20FA  
                                          i2u85_41 20F6                                            i2u86_40 20A6  
                                          i2u86_41 20A2                                            i2u87_48 20AC  
                                          i2u87_49 20C0                                            i2u89_40 2084  
                                          i2u89_41 2080                                            _TXB0DLC 000F25  
                                          _TXB1DLC 000F15                                            _TXB2DLC 000F05  
                                 ?_TMR1_WriteTimer 0001                               _ADC_InterruptHandler 002E  
                                          __Hparam 0000                                            __Lparam 0000  
                        ?_convertReg2StandardCANid 0005                                          ?_timer_1s 0001  
                                  _ECAN_Initialize 1C4E                                          ?_vfprintf 0016  
                                     __psmallconst 1000                                            _Systeme 0028  
                                          __pcinit 1F6E                                            __ramtop 1000  
                                          __ptext0 1010                                            __ptext1 2114  
                                          __ptext2 1F20                                            __ptext3 1DBE  
                                          __ptext4 1D28                                            __ptext5 21B4  
                                          __ptext6 2176                                            __ptext7 1EB6  
                                          __ptext8 213A                                            __ptext9 2024  
                   ??_TMR1_DefaultInterruptHandler 0001                                          _T1CONbits 000FCD  
                            _OSCILLATOR_Initialize 21A2                                 _EUSART1_Initialize 1FAC  
                                 _convertCANid2Reg 19A0                           ??_PIN_MANAGER_Initialize 0005  
                        ?_TMR1_SetInterruptHandler 0005                               end_of_initialization 1F9E  
                           _WakeUpInterruptHandler 0032                                ?_EUSART1_Initialize 0001  
                                          fputc@fp 0009                                      __Lmediumconst 0000  
                      _EUSART1_OverrunErrorHandler 00A7                                      ??_CAN_receive 001A  
                 fp__WakeUpDefaultInterruptHandler 0000                     ?_WakeUpDefaultInterruptHandler 0001  
                                __end_of_vfpfcnvrt 1E3E                                         ??_timer_1s 0001  
                                          postdec2 000FDD                                            postinc0 000FEE  
                                          postinc1 000FE6                                            postinc2 000FDE  
                                       ??_vfprintf 001C                               ??_EUSART1_Initialize 0007  
                                        _PORTAbits 000F80                                    ??_ECAN_WAKI_ISR 0001  
                           CAN_transmit@tempCanMsg 0017                         ??_convertReg2ExtendedCANid 0009  
                              EUSART1_Write@txData 0005                                         main@charge 0085  
                          __end_of_ECAN_Initialize 1D28                       __end_of_INTERRUPT_Initialize 21FA  
                              __end_of_CAN_receive 19A0                                     __end_of___lmul 1F20  
                                      vfpfcnvrt@ap 0014                                        vfpfcnvrt@fp 0010  
                                    __pidataCOMRAM 21FA                                     _ADC_Initialize 218C  
                           ?_OSCILLATOR_Initialize 0001                                     __end_of_printf 213A  
                              start_initialization 1F6E                                        putch@txData 0006  
                            __end_of_EUSART1_Write 218C                convertReg2StandardCANid@returnValue 000C  
                                      vfprintf@fmt 0018                                           ??___lmul 000D  
                           __end_of_ADC_Initialize 21A2                                           ??_printf 0020  
                            TMR1_ISR@CountCallBack 0030                                        __pbssCOMRAM 0026  
                                    __pcstackBANK0 0084             __end_of_ECAN_SetWakeUpInterruptHandler 21F0  
                   _ECAN_SetWakeUpInterruptHandler 21E6                   ??_EUSART1_SetFramingErrorHandler 0007  
                  ?_EUSART1_SetFramingErrorHandler 0005                                          __pnvBANK0 00A5  
                                      _CAN_receive 174C                                   ?_ECAN_Initialize 0001  
                           _PIN_MANAGER_Initialize 20C2                           __end_of_convertCANid2Reg 1B14  
                                        __pintcode 0008                   __end_of_TMR1_SetInterruptHandler 21C8  
                                  ?_ADC_Initialize 0001                       ??_INTERRUPT_InterruptManager 0003  
                                      __smallconst 1000                                           _BAUDCON1 000FA7  
                                      _COMSTATbits 000F71                 _EUSART1_DefaultOverrunErrorHandler 000000  
                             _EUSART1_ErrorHandler 00A5                   __end_of_convertReg2ExtendedCANid 1C4E  
                          _EUSART1_SetErrorHandler 21DC                     convertCANid2Reg@tempPassedInID 0005  
                             _INTERRUPT_Initialize 21F6                                      _TMR1_CallBack 2092  
          EUSART1_SetErrorHandler@interruptHandler 0005                                           _LATCbits 000F8B  
                                         _PIE1bits 000F9D                                           _PIE5bits 000F76  
                                         i2u100_40 0020                                           i2u100_41 001C  
                                         i2u101_40 002E                                           i2u101_41 002A  
                                         i2u102_40 003C                                           i2u102_41 0038  
                                         i2u103_40 0052                                           i2u103_41 004E  
                                         i2u104_40 0060                                           i2u104_41 005C  
                                         _PIR1bits 000F9E                                           _PIR5bits 000F77  
                                         _RXB0EIDH 000F63                                           _RXB0EIDL 000F64  
                                         _RXB1EIDH 000F33                                           _RXB1EIDL 000F34  
                                         _RCONbits 000FD0                                           _RXB0SIDH 000F61  
                                         _RXB0SIDL 000F62                                           _RXF0EIDH 000EE2  
                                         _RXB1SIDH 000F31                                           _RXF0EIDL 000EE3  
                                         _RXB1SIDL 000F32                                           _RXF1EIDH 000EE6  
                                         _RXF1EIDL 000EE7                                           _RXF2EIDH 000EEA  
                                         _RXF2EIDL 000EEB                                           _RXF3EIDH 000EEE  
                                         _RXF3EIDL 000EEF                                           _RXF4EIDH 000EF2  
                                         _RXF4EIDL 000EF3                                           _RXF5EIDH 000EF6  
                                         _RXF5EIDL 000EF7                                           _RXF0SIDH 000EE0  
                                         _RXF0SIDL 000EE1                                           _RXF1SIDH 000EE4  
                                         _TXB0EIDH 000F23                                           _TXB0EIDL 000F24  
                                         _RXF1SIDL 000EE5                                           _RXF2SIDH 000EE8  
                                         _TXB1EIDH 000F13                                           _TXB1EIDL 000F14  
                                         _RXF2SIDL 000EE9                                           _RXF3SIDH 000EEC  
                                         _TXB2EIDH 000F03                                           _TXB2EIDL 000F04  
                                         _RXF3SIDL 000EED                                           _RXF4SIDH 000EF0  
                                         _RXF4SIDL 000EF1                                           _RXF5SIDH 000EF4  
                                         _RXF5SIDL 000EF5                                           _TMR1_ISR 205C  
                                         _RXM0EIDH 000EFA                                           _RXM0EIDL 000EFB  
                                         _RXM1EIDH 000EFE                                           _TXB0SIDH 000F21  
                                         _RXM1EIDL 000EFF                                           _TXB0SIDL 000F22  
                                         _TXB1SIDH 000F11                                           _TXB1SIDL 000F12  
                                         _TXB2SIDH 000F01                                           _TXB2SIDL 000F02  
                                         _RXM0SIDH 000EF8                                           _RXM0SIDL 000EF9  
                                         _RXM1SIDH 000EFC                                           _RXM1SIDL 000EFD  
                                        _vfpfcnvrt 1DBE                                  ??_TMR1_Initialize 0007  
                                       _ADCON0bits 000FC2                                          main@rxCan 0097  
                                        main@txCan 0089                                           _Batterie 0026  
                                ___lmul@multiplier 0005                                        _INTCON2bits 000FF1  
                            ?_INTERRUPT_Initialize 0001                                     ?_TMR1_CallBack 0001  
                         _convertReg2StandardCANid 1E3E              convertReg2ExtendedCANid@tempRXBn_EIDH 000D  
            convertReg2ExtendedCANid@tempRXBn_EIDL 0005              convertReg2ExtendedCANid@tempRXBn_SIDH 0006  
            convertReg2ExtendedCANid@tempRXBn_SIDL 0007                                           __Hrparam 0000  
                                       vfprintf@ap 001A                                           __Lrparam 0000  
                                       vfprintf@fp 0016                                  _ADC_GetConversion 1FEA  
                        convertCANid2Reg@canIdType 0009                            ??_OSCILLATOR_Initialize 0005  
                               ?_ADC_GetConversion 0005                                      _flag_timer_1s 0037  
                                       ?_vfpfcnvrt 0010                           _TMR1_SetInterruptHandler 21BE  
convertReg2ExtendedCANid@CAN_standardLo_ID_hi3bits 0013                              _TMR1_InterruptHandler 00AB  
                        ??_EUSART1_SetErrorHandler 0007                        _EUSART1_DefaultErrorHandler 000000  
                              ??_ADC_GetConversion 0007  convertReg2ExtendedCANid@CAN_standardLo_ID_lo2bits 0012  
                          convertCANid2Reg@wipSIDL 0016                              __end_of_ECAN_WAKI_ISR 2176  
                                         __ptext10 21BE                                           __ptext11 20C2  
                                         __ptext20 218C                                           __ptext12 21A2  
                                         __ptext21 1432                                           __ptext13 21F6  
                                       _T1GCONbits 000FAA                                           __ptext30 2092  
                                         __ptext22 19A0                                           __ptext14 1FAC  
                                         __ptext31 21FC                                           __ptext23 174C  
                                         __ptext15 21C8                                           __ptext32 21F0  
                                         __ptext24 1E3E                                           __ptext16 21D2  
                                         __ptext33 2158                                           __ptext25 1B14  
                                         __ptext17 21DC                                           __ptext34 21FE  
                                         __ptext26 1FEA                                           __ptext18 1C4E  
                                         __ptext35 0000                                           __ptext19 21E6  
                                         __ptext28 205C                                           __ptext29 20EC  
              convertReg2StandardCANid@ConvertedID 0010                convertReg2ExtendedCANid@returnValue 000E  
                        __end_of_ADC_GetConversion 2024     EUSART1_SetOverrunErrorHandler@interruptHandler 0005  
                                         _timer_1s 21F0                                           isa$xinst 000000  
                        ?_convertReg2ExtendedCANid 0005                                      ?_CAN_transmit 0017  
                                         int$flags 003D                                           _vfprintf 1F20  
               __end_of_INTERRUPT_InterruptManager 0074                         _INTERRUPT_InterruptManager 0008  
                                        printf@fmt 001E                                  ??_TMR1_WriteTimer 0003  
                      _EUSART1_FramingErrorHandler 00A9                                        _RXB0CONbits 000F60  
                                      _RXB1CONbits 000F30                                         _INTCONbits 000FF2  
                           ??_INTERRUPT_Initialize 0005                                    ??_TMR1_CallBack 0001  
                                         intlevel2 0000                            ?_PIN_MANAGER_Initialize 0001  
           __end_of_EUSART1_SetOverrunErrorHandler 21D2                     _EUSART1_SetOverrunErrorHandler 21C8  
                                      _TXB0CONbits 000F20                                         _RCSTA1bits 000FAB  
                                     ?_CAN_receive 0018                                        _TXB1CONbits 000F10  
                                      _TXB2CONbits 000F00                                   ??_ADC_Initialize 0005  
                                   ??_CAN_transmit 0019                                  ?_convertCANid2Reg 0005  
                                         printf@ap 0020     EUSART1_SetFramingErrorHandler@interruptHandler 0005  
                               ??_convertCANid2Reg 0012                                        ??_vfpfcnvrt 0016  
                               _eusart1RxLastError 0038                     __end_of_PIN_MANAGER_Initialize 20EC  
                                  _TMR1_Initialize 2024  
